
Allocating common symbols
Common symbol       size              file

SaveRState          0x2               ..\obj\usb_int.o
HSEStartUpStatus    0x1               ..\obj\hw_config.o
SaveState           0x2               ..\obj\usb_init.o
ProtocolValue       0x4               ..\obj\usb_prop.o
wIstr               0x2               ..\obj\usb_istr.o
pProperty           0x4               ..\obj\usb_init.o
EPindex             0x1               ..\obj\usb_init.o
Report_Buf          0x40              ..\obj\usb_prop.o
SaveTState          0x2               ..\obj\usb_int.o
Device_Info         0x1c              ..\obj\usb_init.o
pUser_Standard_Requests
                    0x4               ..\obj\usb_init.o
Receive_Buffer      0x9               ..\obj\usb_endp.o
EXTI_Enable         0x1               ..\obj\usb_prop.o
StatusInfo          0x2               ..\obj\usb_core.o
pInformation        0x4               ..\obj\usb_init.o
ResumeS             0x2               ..\obj\usb_pwr.o
Buffer              0x5               ..\obj\hw_config.o
EP                  0x20              ..\obj\usb_pwr.o
EXTI_InitStructure  0x8               ..\obj\hw_config.o
wInterrupt_Mask     0x2               ..\obj\usb_init.o

Discarded input sections

 .text          0x00000000        0x0 ..\obj\usb_core.o
 .data          0x00000000        0x0 ..\obj\usb_core.o
 .text.Standard_SetConfiguration
                0x00000000       0x3c ..\obj\usb_core.o
 .text.Standard_SetInterface
                0x00000000       0x50 ..\obj\usb_core.o
 .text.Standard_SetDeviceFeature
                0x00000000       0x28 ..\obj\usb_core.o
 .text.Post0_Process
                0x00000000       0x40 ..\obj\usb_core.o
 .text          0x00000000        0x0 ..\obj\usb_int.o
 .data          0x00000000        0x0 ..\obj\usb_int.o
 .bss           0x00000000        0x0 ..\obj\usb_int.o
 .text.CTR_HP   0x00000000       0x88 ..\obj\usb_int.o
 .text          0x00000000        0x0 ..\obj\system_stm32f10x.o
 .data          0x00000000       0x14 ..\obj\system_stm32f10x.o
 .bss           0x00000000        0x0 ..\obj\system_stm32f10x.o
 .text.SystemCoreClockUpdate
                0x00000000       0x68 ..\obj\system_stm32f10x.o
 .text          0x00000000        0x0 ..\obj\keycodes.o
 .bss           0x00000000        0x0 ..\obj\keycodes.o
 .text          0x00000000        0x0 ..\obj\usb_desc.o
 .bss           0x00000000        0x0 ..\obj\usb_desc.o
 .text          0x00000000        0x0 ..\obj\usb_regs.o
 .data          0x00000000        0x0 ..\obj\usb_regs.o
 .bss           0x00000000        0x0 ..\obj\usb_regs.o
 .text.SetCNTR  0x00000000        0xc ..\obj\usb_regs.o
 .text.GetCNTR  0x00000000       0x10 ..\obj\usb_regs.o
 .text.SetISTR  0x00000000        0xc ..\obj\usb_regs.o
 .text.GetISTR  0x00000000       0x10 ..\obj\usb_regs.o
 .text.GetFNR   0x00000000       0x10 ..\obj\usb_regs.o
 .text.SetDADDR
                0x00000000        0xc ..\obj\usb_regs.o
 .text.GetDADDR
                0x00000000       0x10 ..\obj\usb_regs.o
 .text.GetBTABLE
                0x00000000       0x10 ..\obj\usb_regs.o
 .text.SetENDPOINT
                0x00000000       0x10 ..\obj\usb_regs.o
 .text.GetENDPOINT
                0x00000000       0x10 ..\obj\usb_regs.o
 .text.GetEPType
                0x00000000       0x14 ..\obj\usb_regs.o
 .text.SetDouBleBuffEPStall
                0x00000000       0x2c ..\obj\usb_regs.o
 .text.GetEPTxStatus
                0x00000000       0x14 ..\obj\usb_regs.o
 .text.GetEPRxStatus
                0x00000000       0x14 ..\obj\usb_regs.o
 .text.SetEP_KIND
                0x00000000       0x20 ..\obj\usb_regs.o
 .text.ClearEP_KIND
                0x00000000       0x20 ..\obj\usb_regs.o
 .text.Set_Status_Out
                0x00000000       0x20 ..\obj\usb_regs.o
 .text.SetEPDoubleBuff
                0x00000000       0x20 ..\obj\usb_regs.o
 .text.ClearEPDoubleBuff
                0x00000000       0x20 ..\obj\usb_regs.o
 .text.GetTxStallStatus
                0x00000000       0x1c ..\obj\usb_regs.o
 .text.GetRxStallStatus
                0x00000000       0x1c ..\obj\usb_regs.o
 .text.ClearEP_CTR_RX
                0x00000000       0x18 ..\obj\usb_regs.o
 .text.ClearEP_CTR_TX
                0x00000000       0x18 ..\obj\usb_regs.o
 .text.ToggleDTOG_RX
                0x00000000       0x20 ..\obj\usb_regs.o
 .text.ToggleDTOG_TX
                0x00000000       0x20 ..\obj\usb_regs.o
 .text.SetEPAddress
                0x00000000       0x20 ..\obj\usb_regs.o
 .text.GetEPAddress
                0x00000000       0x14 ..\obj\usb_regs.o
 .text.SetEPCountRxReg
                0x00000000       0x28 ..\obj\usb_regs.o
 .text.GetEPTxCount
                0x00000000       0x24 ..\obj\usb_regs.o
 .text.GetEPRxCount
                0x00000000       0x24 ..\obj\usb_regs.o
 .text.SetEPDblBuffAddr
                0x00000000       0x40 ..\obj\usb_regs.o
 .text.SetEPDblBuf0Addr
                0x00000000       0x24 ..\obj\usb_regs.o
 .text.SetEPDblBuf1Addr
                0x00000000       0x28 ..\obj\usb_regs.o
 .text.GetEPDblBuf0Addr
                0x00000000       0x20 ..\obj\usb_regs.o
 .text.GetEPDblBuf1Addr
                0x00000000       0x20 ..\obj\usb_regs.o
 .text.SetEPDblBuffCount
                0x00000000       0xc0 ..\obj\usb_regs.o
 .text.SetEPDblBuf0Count
                0x00000000       0x6c ..\obj\usb_regs.o
 .text.SetEPDblBuf1Count
                0x00000000       0x6c ..\obj\usb_regs.o
 .text.GetEPDblBuf0Count
                0x00000000       0x24 ..\obj\usb_regs.o
 .text.GetEPDblBuf1Count
                0x00000000       0x24 ..\obj\usb_regs.o
 .text.GetEPDblBufDir
                0x00000000       0x4c ..\obj\usb_regs.o
 .text.FreeUserBuffer
                0x00000000       0x48 ..\obj\usb_regs.o
 .text.ToWord   0x00000000        0x8 ..\obj\usb_regs.o
 .text          0x00000000        0x0 ..\obj\stm32f10x_pwr.o
 .data          0x00000000        0x0 ..\obj\stm32f10x_pwr.o
 .bss           0x00000000        0x0 ..\obj\stm32f10x_pwr.o
 .text.PWR_DeInit
                0x00000000       0x1c ..\obj\stm32f10x_pwr.o
 .text.PWR_BackupAccessCmd
                0x00000000        0xc ..\obj\stm32f10x_pwr.o
 .text.PWR_PVDCmd
                0x00000000        0xc ..\obj\stm32f10x_pwr.o
 .text.PWR_PVDLevelConfig
                0x00000000       0x14 ..\obj\stm32f10x_pwr.o
 .text.PWR_WakeUpPinCmd
                0x00000000        0xc ..\obj\stm32f10x_pwr.o
 .text.PWR_EnterSTOPMode
                0x00000000       0x44 ..\obj\stm32f10x_pwr.o
 .text.PWR_EnterSTANDBYMode
                0x00000000       0x2c ..\obj\stm32f10x_pwr.o
 .text.PWR_GetFlagStatus
                0x00000000       0x14 ..\obj\stm32f10x_pwr.o
 .text.PWR_ClearFlag
                0x00000000       0x14 ..\obj\stm32f10x_pwr.o
 .debug_info    0x00000000      0x504 ..\obj\stm32f10x_pwr.o
 .debug_abbrev  0x00000000      0x1d1 ..\obj\stm32f10x_pwr.o
 .debug_loc     0x00000000      0x1a5 ..\obj\stm32f10x_pwr.o
 .debug_aranges
                0x00000000       0x60 ..\obj\stm32f10x_pwr.o
 .debug_ranges  0x00000000       0x50 ..\obj\stm32f10x_pwr.o
 .debug_line    0x00000000      0x321 ..\obj\stm32f10x_pwr.o
 .debug_str     0x00000000      0x30a ..\obj\stm32f10x_pwr.o
 .comment       0x00000000       0x71 ..\obj\stm32f10x_pwr.o
 .ARM.attributes
                0x00000000       0x33 ..\obj\stm32f10x_pwr.o
 .debug_frame   0x00000000       0xb0 ..\obj\stm32f10x_pwr.o
 .text          0x00000000        0x0 ..\obj\startup_stm32f10x_md.o
 .data          0x00000000        0x0 ..\obj\startup_stm32f10x_md.o
 .bss           0x00000000        0x0 ..\obj\startup_stm32f10x_md.o
 .text          0x00000000        0x0 ..\obj\hw_config.o
 .data          0x00000000        0x0 ..\obj\hw_config.o
 .bss           0x00000000        0x0 ..\obj\hw_config.o
 .text.Enter_LowPowerMode
                0x00000000       0x14 ..\obj\hw_config.o
 .text.RHIDCheckState
                0x00000000        0x4 ..\obj\hw_config.o
 .text.RHID_Send
                0x00000000       0x2c ..\obj\hw_config.o
 .text          0x00000000        0x0 ..\obj\stm32f10x_gpio.o
 .data          0x00000000        0x0 ..\obj\stm32f10x_gpio.o
 .bss           0x00000000        0x0 ..\obj\stm32f10x_gpio.o
 .text.GPIO_DeInit
                0x00000000       0xe8 ..\obj\stm32f10x_gpio.o
 .text.GPIO_AFIODeInit
                0x00000000       0x18 ..\obj\stm32f10x_gpio.o
 .text.GPIO_StructInit
                0x00000000       0x10 ..\obj\stm32f10x_gpio.o
 .text.GPIO_ReadInputDataBit
                0x00000000        0xc ..\obj\stm32f10x_gpio.o
 .text.GPIO_ReadInputData
                0x00000000        0x8 ..\obj\stm32f10x_gpio.o
 .text.GPIO_ReadOutputDataBit
                0x00000000        0xc ..\obj\stm32f10x_gpio.o
 .text.GPIO_ReadOutputData
                0x00000000        0x8 ..\obj\stm32f10x_gpio.o
 .text.GPIO_WriteBit
                0x00000000        0xc ..\obj\stm32f10x_gpio.o
 .text.GPIO_Write
                0x00000000        0x4 ..\obj\stm32f10x_gpio.o
 .text.GPIO_PinLockConfig
                0x00000000       0x10 ..\obj\stm32f10x_gpio.o
 .text.GPIO_EventOutputConfig
                0x00000000       0x20 ..\obj\stm32f10x_gpio.o
 .text.GPIO_EventOutputCmd
                0x00000000        0xc ..\obj\stm32f10x_gpio.o
 .text.GPIO_PinRemapConfig
                0x00000000       0x78 ..\obj\stm32f10x_gpio.o
 .text.GPIO_EXTILineConfig
                0x00000000       0x38 ..\obj\stm32f10x_gpio.o
 .text.GPIO_ETH_MediaInterfaceConfig
                0x00000000        0xc ..\obj\stm32f10x_gpio.o
 .text          0x00000000        0x0 ..\obj\usb_prop.o
 .text.HID_SetProtocol
                0x00000000       0x1c ..\obj\usb_prop.o
 .text          0x00000000        0x0 ..\obj\usb_pwr.o
 .text.PowerOff
                0x00000000       0x28 ..\obj\usb_pwr.o
 .text.Resume_Init
                0x00000000       0x20 ..\obj\usb_pwr.o
 .text          0x00000000        0x0 ..\obj\usb_init.o
 .data          0x00000000        0x0 ..\obj\usb_init.o
 .bss           0x00000000        0x0 ..\obj\usb_init.o
 .text          0x00000000        0x0 ..\obj\main.o
 .bss           0x00000000        0x0 ..\obj\main.o
 .text.MOUSE_move
                0x00000000       0x3c ..\obj\main.o
 .text.KEYBOARD_SEND_key_buf
                0x00000000       0x28 ..\obj\main.o
 .text.KEYBOARD_SEND_Char
                0x00000000       0x54 ..\obj\main.o
 .text.KEYBOARD_SEND_word
                0x00000000       0x5c ..\obj\main.o
 .text          0x00000000        0x0 ..\obj\stm32f10x_rcc.o
 .data          0x00000000       0x14 ..\obj\stm32f10x_rcc.o
 .bss           0x00000000        0x0 ..\obj\stm32f10x_rcc.o
 .text.RCC_AdjustHSICalibrationValue
                0x00000000       0x18 ..\obj\stm32f10x_rcc.o
 .text.RCC_HSICmd
                0x00000000        0xc ..\obj\stm32f10x_rcc.o
 .text.RCC_ITConfig
                0x00000000       0x1c ..\obj\stm32f10x_rcc.o
 .text.RCC_ADCCLKConfig
                0x00000000       0x14 ..\obj\stm32f10x_rcc.o
 .text.RCC_LSEConfig
                0x00000000       0x20 ..\obj\stm32f10x_rcc.o
 .text.RCC_LSICmd
                0x00000000        0xc ..\obj\stm32f10x_rcc.o
 .text.RCC_RTCCLKConfig
                0x00000000       0x10 ..\obj\stm32f10x_rcc.o
 .text.RCC_RTCCLKCmd
                0x00000000        0xc ..\obj\stm32f10x_rcc.o
 .text.RCC_GetClocksFreq
                0x00000000       0xa4 ..\obj\stm32f10x_rcc.o
 .text.RCC_AHBPeriphClockCmd
                0x00000000       0x1c ..\obj\stm32f10x_rcc.o
 .text.RCC_APB2PeriphResetCmd
                0x00000000       0x1c ..\obj\stm32f10x_rcc.o
 .text.RCC_APB1PeriphResetCmd
                0x00000000       0x1c ..\obj\stm32f10x_rcc.o
 .text.RCC_BackupResetCmd
                0x00000000        0xc ..\obj\stm32f10x_rcc.o
 .text.RCC_ClockSecuritySystemCmd
                0x00000000        0xc ..\obj\stm32f10x_rcc.o
 .text.RCC_MCOConfig
                0x00000000        0xc ..\obj\stm32f10x_rcc.o
 .text.RCC_ClearFlag
                0x00000000       0x14 ..\obj\stm32f10x_rcc.o
 .text.RCC_GetITStatus
                0x00000000       0x14 ..\obj\stm32f10x_rcc.o
 .text.RCC_ClearITPendingBit
                0x00000000        0xc ..\obj\stm32f10x_rcc.o
 .text          0x00000000        0x0 ..\obj\stm32f10x_exti.o
 .data          0x00000000        0x0 ..\obj\stm32f10x_exti.o
 .bss           0x00000000        0x0 ..\obj\stm32f10x_exti.o
 .text.EXTI_DeInit
                0x00000000       0x20 ..\obj\stm32f10x_exti.o
 .text.EXTI_StructInit
                0x00000000       0x10 ..\obj\stm32f10x_exti.o
 .text.EXTI_GenerateSWInterrupt
                0x00000000       0x10 ..\obj\stm32f10x_exti.o
 .text.EXTI_GetFlagStatus
                0x00000000       0x14 ..\obj\stm32f10x_exti.o
 .text.EXTI_ClearFlag
                0x00000000        0xc ..\obj\stm32f10x_exti.o
 .text.EXTI_GetITStatus
                0x00000000       0x20 ..\obj\stm32f10x_exti.o
 .text          0x00000000        0x0 ..\obj\usb_sil.o
 .data          0x00000000        0x0 ..\obj\usb_sil.o
 .bss           0x00000000        0x0 ..\obj\usb_sil.o
 .text.USB_SIL_Read
                0x00000000       0x24 ..\obj\usb_sil.o
 .text          0x00000000        0x0 ..\obj\syscalls.o
 .data          0x00000000        0x0 ..\obj\syscalls.o
 .bss           0x00000000        0x4 ..\obj\syscalls.o
 .text._sbrk    0x00000000       0x20 ..\obj\syscalls.o
 .text.link     0x00000000        0x8 ..\obj\syscalls.o
 .text._close   0x00000000        0x8 ..\obj\syscalls.o
 .text._fstat   0x00000000        0xc ..\obj\syscalls.o
 .text._isatty  0x00000000        0x4 ..\obj\syscalls.o
 .text._lseek   0x00000000        0x4 ..\obj\syscalls.o
 .text._read    0x00000000        0x4 ..\obj\syscalls.o
 .text._write   0x00000000        0x4 ..\obj\syscalls.o
 .text.abort    0x00000000        0x4 ..\obj\syscalls.o
 .debug_info    0x00000000      0x439 ..\obj\syscalls.o
 .debug_abbrev  0x00000000       0xf3 ..\obj\syscalls.o
 .debug_loc     0x00000000      0x108 ..\obj\syscalls.o
 .debug_aranges
                0x00000000       0x60 ..\obj\syscalls.o
 .debug_ranges  0x00000000       0x50 ..\obj\syscalls.o
 .debug_line    0x00000000      0x1bb ..\obj\syscalls.o
 .debug_str     0x00000000      0x2f2 ..\obj\syscalls.o
 .comment       0x00000000       0x71 ..\obj\syscalls.o
 .ARM.attributes
                0x00000000       0x33 ..\obj\syscalls.o
 .debug_frame   0x00000000       0xa0 ..\obj\syscalls.o
 .text          0x00000000        0x0 ..\obj\stm32_it.o
 .data          0x00000000        0x0 ..\obj\stm32_it.o
 .bss           0x00000000        0x0 ..\obj\stm32_it.o
 .text          0x00000000        0x0 ..\obj\usb_endp.o
 .data          0x00000000        0x0 ..\obj\usb_endp.o
 .bss           0x00000000        0x0 ..\obj\usb_endp.o
 COMMON         0x00000000        0x9 ..\obj\usb_endp.o
 .text          0x00000000        0x0 ..\obj\misc.o
 .data          0x00000000        0x0 ..\obj\misc.o
 .bss           0x00000000        0x0 ..\obj\misc.o
 .text.NVIC_SetVectorTable
                0x00000000       0x18 ..\obj\misc.o
 .text.NVIC_SystemLPConfig
                0x00000000       0x1c ..\obj\misc.o
 .text.SysTick_CLKSourceConfig
                0x00000000       0x1c ..\obj\misc.o
 .text          0x00000000        0x0 ..\obj\usb_mem.o
 .data          0x00000000        0x0 ..\obj\usb_mem.o
 .bss           0x00000000        0x0 ..\obj\usb_mem.o
 .text          0x00000000        0x0 ..\obj\usb_istr.o

Memory Configuration

Name             Origin             Length             Attributes
rom              0x08000000         0x00010000         xr
ram              0x20000000         0x00005000         xrw
*default*        0x00000000         0xffffffff

Linker script and memory map

                0x20005000                _eram = 0x20005000

.text           0x08000000     0x263c
 *(.isr_vector)
 .isr_vector    0x08000000      0x10c ..\obj\startup_stm32f10x_md.o
                0x08000000                g_pfnVectors
 *(.text*)
 .text.Standard_GetConfiguration
                0x0800010c       0x28 ..\obj\usb_core.o
                0x0800010c                Standard_GetConfiguration
 .text.Standard_GetInterface
                0x08000134       0x28 ..\obj\usb_core.o
                0x08000134                Standard_GetInterface
 .text.Standard_GetStatus
                0x0800015c       0xa0 ..\obj\usb_core.o
                0x0800015c                Standard_GetStatus
 .text.DataStageIn
                0x080001fc       0xb4 ..\obj\usb_core.o
 .text.Standard_ClearFeature
                0x080002b0       0xd8 ..\obj\usb_core.o
                0x080002b0                Standard_ClearFeature
 .text.Standard_SetEndPointFeature
                0x08000388       0x90 ..\obj\usb_core.o
                0x08000388                Standard_SetEndPointFeature
 .text.Standard_GetDescriptorData
                0x08000418       0x1c ..\obj\usb_core.o
                0x08000418                Standard_GetDescriptorData
 .text.Setup0_Process
                0x08000434      0x414 ..\obj\usb_core.o
                0x08000434                Setup0_Process
 .text.In0_Process
                0x08000848      0x130 ..\obj\usb_core.o
                0x08000848                In0_Process
 .text.Out0_Process
                0x08000978      0x110 ..\obj\usb_core.o
                0x08000978                Out0_Process
 .text.SetDeviceAddress
                0x08000a88       0xa8 ..\obj\usb_core.o
                0x08000a88                SetDeviceAddress
 .text.NOP_Process
                0x08000b30        0x4 ..\obj\usb_core.o
                0x08000b30                NOP_Process
 .text.CTR_LP   0x08000b34      0x1b4 ..\obj\usb_int.o
                0x08000b34                CTR_LP
 .text.SystemInit
                0x08000ce8      0x120 ..\obj\system_stm32f10x.o
                0x08000ce8                SystemInit
 .text.set_key_buf
                0x08000e08       0x10 ..\obj\keycodes.o
                0x08000e08                set_key_buf
 .text.press_key_mod
                0x08000e18       0x3c ..\obj\keycodes.o
                0x08000e18                press_key_mod
 .text.SetBTABLE
                0x08000e54       0x14 ..\obj\usb_regs.o
                0x08000e54                SetBTABLE
 .text.SetEPType
                0x08000e68       0x18 ..\obj\usb_regs.o
                0x08000e68                SetEPType
 .text.SetEPTxStatus
                0x08000e80       0x40 ..\obj\usb_regs.o
                0x08000e80                SetEPTxStatus
 .text.SetEPRxStatus
                0x08000ec0       0x40 ..\obj\usb_regs.o
                0x08000ec0                SetEPRxStatus
 .text.SetEPTxValid
                0x08000f00       0x24 ..\obj\usb_regs.o
                0x08000f00                SetEPTxValid
 .text.SetEPRxValid
                0x08000f24       0x24 ..\obj\usb_regs.o
                0x08000f24                SetEPRxValid
 .text.Clear_Status_Out
                0x08000f48       0x20 ..\obj\usb_regs.o
                0x08000f48                Clear_Status_Out
 .text.ClearDTOG_RX
                0x08000f68       0x24 ..\obj\usb_regs.o
                0x08000f68                ClearDTOG_RX
 .text.ClearDTOG_TX
                0x08000f8c       0x24 ..\obj\usb_regs.o
                0x08000f8c                ClearDTOG_TX
 .text.SetEPTxAddr
                0x08000fb0       0x24 ..\obj\usb_regs.o
                0x08000fb0                SetEPTxAddr
 .text.SetEPRxAddr
                0x08000fd4       0x28 ..\obj\usb_regs.o
                0x08000fd4                SetEPRxAddr
 .text.GetEPTxAddr
                0x08000ffc       0x20 ..\obj\usb_regs.o
                0x08000ffc                GetEPTxAddr
 .text.GetEPRxAddr
                0x0800101c       0x20 ..\obj\usb_regs.o
                0x0800101c                GetEPRxAddr
 .text.SetEPTxCount
                0x0800103c       0x20 ..\obj\usb_regs.o
                0x0800103c                SetEPTxCount
 .text.SetEPRxCount
                0x0800105c       0x44 ..\obj\usb_regs.o
                0x0800105c                SetEPRxCount
 .text.ByteSwap
                0x080010a0        0xc ..\obj\usb_regs.o
                0x080010a0                ByteSwap
 .text.Default_Handler
                0x080010ac        0x4 ..\obj\startup_stm32f10x_md.o
                0x080010ac                EXTI2_IRQHandler
                0x080010ac                TIM1_CC_IRQHandler
                0x080010ac                PVD_IRQHandler
                0x080010ac                EXTI3_IRQHandler
                0x080010ac                EXTI0_IRQHandler
                0x080010ac                I2C2_EV_IRQHandler
                0x080010ac                ADC1_2_IRQHandler
                0x080010ac                SPI1_IRQHandler
                0x080010ac                TAMPER_IRQHandler
                0x080010ac                DMA1_Channel4_IRQHandler
                0x080010ac                USART3_IRQHandler
                0x080010ac                RTC_IRQHandler
                0x080010ac                DMA1_Channel7_IRQHandler
                0x080010ac                CAN1_RX1_IRQHandler
                0x080010ac                TIM4_IRQHandler
                0x080010ac                I2C1_EV_IRQHandler
                0x080010ac                DMA1_Channel6_IRQHandler
                0x080010ac                TIM3_IRQHandler
                0x080010ac                RCC_IRQHandler
                0x080010ac                TIM1_TRG_COM_IRQHandler
                0x080010ac                DMA1_Channel1_IRQHandler
                0x080010ac                EXTI15_10_IRQHandler
                0x080010ac                EXTI9_5_IRQHandler
                0x080010ac                SPI2_IRQHandler
                0x080010ac                DMA1_Channel5_IRQHandler
                0x080010ac                EXTI4_IRQHandler
                0x080010ac                USB_HP_CAN1_TX_IRQHandler
                0x080010ac                DMA1_Channel3_IRQHandler
                0x080010ac                TIM1_UP_IRQHandler
                0x080010ac                WWDG_IRQHandler
                0x080010ac                TIM2_IRQHandler
                0x080010ac                TIM1_BRK_IRQHandler
                0x080010ac                EXTI1_IRQHandler
                0x080010ac                RTCAlarm_IRQHandler
                0x080010ac                USART2_IRQHandler
                0x080010ac                I2C2_ER_IRQHandler
                0x080010ac                DMA1_Channel2_IRQHandler
                0x080010ac                CAN1_SCE_IRQHandler
                0x080010ac                FLASH_IRQHandler
                0x080010ac                USART1_IRQHandler
                0x080010ac                I2C1_ER_IRQHandler
 .text.Default_Reset_Handler
                0x080010b0       0x78 ..\obj\startup_stm32f10x_md.o
                0x080010b0                Default_Reset_Handler
                0x080010b0                Reset_Handler
 .text.Set_System
                0x08001128       0x58 ..\obj\hw_config.o
                0x08001128                Set_System
 .text.Set_USBClock
                0x08001180       0x18 ..\obj\hw_config.o
                0x08001180                Set_USBClock
 .text.Leave_LowPowerMode
                0x08001198       0x20 ..\obj\hw_config.o
                0x08001198                Leave_LowPowerMode
 .text.USB_Interrupts_Config
                0x080011b8       0x40 ..\obj\hw_config.o
                0x080011b8                USB_Interrupts_Config
 .text.USB_Cable_Config
                0x080011f8       0x24 ..\obj\hw_config.o
                0x080011f8                USB_Cable_Config
 .text.Get_SerialNum
                0x0800121c      0x1cc ..\obj\hw_config.o
                0x0800121c                Get_SerialNum
 .text.GPIO_Init
                0x080013e8      0x3dc ..\obj\stm32f10x_gpio.o
                0x080013e8                GPIO_Init
 .text.GPIO_SetBits
                0x080017c4        0x4 ..\obj\stm32f10x_gpio.o
                0x080017c4                GPIO_SetBits
 .text.GPIO_ResetBits
                0x080017c8        0x4 ..\obj\stm32f10x_gpio.o
                0x080017c8                GPIO_ResetBits
 .text.HID_SetConfiguration
                0x080017cc       0x18 ..\obj\usb_prop.o
                0x080017cc                HID_SetConfiguration
 .text.HID_SetDeviceAddress
                0x080017e4       0x10 ..\obj\usb_prop.o
                0x080017e4                HID_SetDeviceAddress
 .text.HID_Status_In
                0x080017f4       0x18 ..\obj\usb_prop.o
                0x080017f4                HID_Status_In
 .text.HID_Status_Out
                0x0800180c        0x4 ..\obj\usb_prop.o
                0x0800180c                HID_Status_Out
 .text.HID_Data_Setup
                0x08001810       0x74 ..\obj\usb_prop.o
                0x08001810                HID_Data_Setup
 .text.HID_SetReport_Feature
                0x08001884       0x18 ..\obj\usb_prop.o
                0x08001884                HID_SetReport_Feature
 .text.HID_NoData_Setup
                0x0800189c       0x28 ..\obj\usb_prop.o
                0x0800189c                HID_NoData_Setup
 .text.HID_Get_Interface_Setting
                0x080018c4        0xc ..\obj\usb_prop.o
                0x080018c4                HID_Get_Interface_Setting
 .text.HID_GetProtocolValue
                0x080018d0       0x18 ..\obj\usb_prop.o
                0x080018d0                HID_GetProtocolValue
 .text.HID_GetHIDDescriptor
                0x080018e8        0xc ..\obj\usb_prop.o
                0x080018e8                HID_GetHIDDescriptor
 .text.HID_GetReportDescriptor
                0x080018f4        0xc ..\obj\usb_prop.o
                0x080018f4                HID_GetReportDescriptor
 .text.HID_GetStringDescriptor
                0x08001900       0x20 ..\obj\usb_prop.o
                0x08001900                HID_GetStringDescriptor
 .text.HID_GetConfigDescriptor
                0x08001920        0xc ..\obj\usb_prop.o
                0x08001920                HID_GetConfigDescriptor
 .text.HID_GetDeviceDescriptor
                0x0800192c        0xc ..\obj\usb_prop.o
                0x0800192c                HID_GetDeviceDescriptor
 .text.HID_Reset
                0x08001938       0xb8 ..\obj\usb_prop.o
                0x08001938                HID_Reset
 .text.HID_init
                0x080019f0       0x28 ..\obj\usb_prop.o
                0x080019f0                HID_init
 .text.PowerOn  0x08001a18       0x38 ..\obj\usb_pwr.o
                0x08001a18                PowerOn
 .text.Suspend  0x08001a50      0x1a4 ..\obj\usb_pwr.o
                0x08001a50                Suspend
 .text.Resume   0x08001bf4       0xf8 ..\obj\usb_pwr.o
                0x08001bf4                Resume
 .text.USB_Init
                0x08001cec       0x44 ..\obj\usb_init.o
                0x08001cec                USB_Init
 .text.SetSysClockTo72
                0x08001d30       0x5c ..\obj\main.o
                0x08001d30                SetSysClockTo72
 .text.startup.main
                0x08001d8c       0xbc ..\obj\main.o
                0x08001d8c                main
 .text.RCC_DeInit
                0x08001e48       0x40 ..\obj\stm32f10x_rcc.o
                0x08001e48                RCC_DeInit
 .text.RCC_HSEConfig
                0x08001e88       0x38 ..\obj\stm32f10x_rcc.o
                0x08001e88                RCC_HSEConfig
 .text.RCC_WaitForHSEStartUp
                0x08001ec0       0x40 ..\obj\stm32f10x_rcc.o
                0x08001ec0                RCC_WaitForHSEStartUp
 .text.RCC_PLLConfig
                0x08001f00       0x18 ..\obj\stm32f10x_rcc.o
                0x08001f00                RCC_PLLConfig
 .text.RCC_PLLCmd
                0x08001f18        0xc ..\obj\stm32f10x_rcc.o
                0x08001f18                RCC_PLLCmd
 .text.RCC_SYSCLKConfig
                0x08001f24       0x14 ..\obj\stm32f10x_rcc.o
                0x08001f24                RCC_SYSCLKConfig
 .text.RCC_GetSYSCLKSource
                0x08001f38       0x10 ..\obj\stm32f10x_rcc.o
                0x08001f38                RCC_GetSYSCLKSource
 .text.RCC_HCLKConfig
                0x08001f48       0x14 ..\obj\stm32f10x_rcc.o
                0x08001f48                RCC_HCLKConfig
 .text.RCC_PCLK1Config
                0x08001f5c       0x14 ..\obj\stm32f10x_rcc.o
                0x08001f5c                RCC_PCLK1Config
 .text.RCC_PCLK2Config
                0x08001f70       0x18 ..\obj\stm32f10x_rcc.o
                0x08001f70                RCC_PCLK2Config
 .text.RCC_USBCLKConfig
                0x08001f88        0xc ..\obj\stm32f10x_rcc.o
                0x08001f88                RCC_USBCLKConfig
 .text.RCC_APB2PeriphClockCmd
                0x08001f94       0x1c ..\obj\stm32f10x_rcc.o
                0x08001f94                RCC_APB2PeriphClockCmd
 .text.RCC_APB1PeriphClockCmd
                0x08001fb0       0x1c ..\obj\stm32f10x_rcc.o
                0x08001fb0                RCC_APB1PeriphClockCmd
 .text.RCC_GetFlagStatus
                0x08001fcc       0x30 ..\obj\stm32f10x_rcc.o
                0x08001fcc                RCC_GetFlagStatus
 .text.EXTI_Init
                0x08001ffc       0x7c ..\obj\stm32f10x_exti.o
                0x08001ffc                EXTI_Init
 .text.EXTI_ClearITPendingBit
                0x08002078        0xc ..\obj\stm32f10x_exti.o
                0x08002078                EXTI_ClearITPendingBit
 .text.USB_SIL_Init
                0x08002084       0x2c ..\obj\usb_sil.o
                0x08002084                USB_SIL_Init
 .text.USB_SIL_Write
                0x080020b0       0x28 ..\obj\usb_sil.o
                0x080020b0                USB_SIL_Write
 .text.NMI_Handler
                0x080020d8        0x4 ..\obj\stm32_it.o
                0x080020d8                NMI_Handler
 .text.HardFault_Handler
                0x080020dc        0x4 ..\obj\stm32_it.o
                0x080020dc                HardFault_Handler
 .text.MemManage_Handler
                0x080020e0        0x4 ..\obj\stm32_it.o
                0x080020e0                MemManage_Handler
 .text.BusFault_Handler
                0x080020e4        0x4 ..\obj\stm32_it.o
                0x080020e4                BusFault_Handler
 .text.UsageFault_Handler
                0x080020e8        0x4 ..\obj\stm32_it.o
                0x080020e8                UsageFault_Handler
 .text.SVC_Handler
                0x080020ec        0x4 ..\obj\stm32_it.o
                0x080020ec                SVC_Handler
 .text.DebugMon_Handler
                0x080020f0        0x4 ..\obj\stm32_it.o
                0x080020f0                DebugMon_Handler
 .text.PendSV_Handler
                0x080020f4        0x4 ..\obj\stm32_it.o
                0x080020f4                PendSV_Handler
 .text.SysTick_Handler
                0x080020f8        0x4 ..\obj\stm32_it.o
                0x080020f8                SysTick_Handler
 .text.USB_LP_CAN1_RX0_IRQHandler
                0x080020fc        0x4 ..\obj\stm32_it.o
                0x080020fc                USB_LP_CAN1_RX0_IRQHandler
 .text.USBWakeUp_IRQHandler
                0x08002100        0x8 ..\obj\stm32_it.o
                0x08002100                USBWakeUp_IRQHandler
 .text.EP1_OUT_Callback
                0x08002108        0xc ..\obj\usb_endp.o
                0x08002108                EP1_OUT_Callback
 .text.EP1_IN_Callback
                0x08002114       0x10 ..\obj\usb_endp.o
                0x08002114                EP1_IN_Callback
 .text.NVIC_PriorityGroupConfig
                0x08002124       0x14 ..\obj\misc.o
                0x08002124                NVIC_PriorityGroupConfig
 .text.NVIC_Init
                0x08002138       0x7c ..\obj\misc.o
                0x08002138                NVIC_Init
 .text.UserToPMABufferCopy
                0x080021b4       0x78 ..\obj\usb_mem.o
                0x080021b4                UserToPMABufferCopy
 .text.PMAToUserBufferCopy
                0x0800222c       0x50 ..\obj\usb_mem.o
                0x0800222c                PMAToUserBufferCopy
 .text.USB_Istr
                0x0800227c      0x278 ..\obj\usb_istr.o
                0x0800227c                USB_Istr
 *(.init)
 *(.fini)
 *crtbegin.o(.ctors)
 *crtbegin?.o(.ctors)
 *(EXCLUDE_FILE(*crtend.o *crtend?.o) .ctors)
 *(SORT(.ctors.*))
 *(.ctors)
 *crtbegin.o(.dtors)
 *crtbegin?.o(.dtors)
 *(EXCLUDE_FILE(*crtend.o *crtend?.o) .dtors)
 *(SORT(.dtors.*))
 *(.dtors)
 *(.rodata*)
 .rodata        0x080024f4       0x60 ..\obj\keycodes.o
 .rodata        0x08002554       0xdc ..\obj\usb_desc.o
                0x08002554                RHID_StringProduct
                0x0800256c                RHID_StringVendor
                0x08002578                RHID_StringLangID
                0x0800257c                RHID_ReportDescriptor
                0x080025f0                RHID_ConfigDescriptor
                0x0800261c                RHID_DeviceDescriptor
 .rodata.str1.4
                0x08002630        0xc ..\obj\main.o
 *(.eh_fram e*)

.glue_7         0x0800263c        0x0
 .glue_7        0x00000000        0x0 linker stubs

.glue_7t        0x0800263c        0x0
 .glue_7t       0x00000000        0x0 linker stubs

.vfp11_veneer   0x0800263c        0x0
 .vfp11_veneer  0x00000000        0x0 linker stubs

.v4_bx          0x0800263c        0x0
 .v4_bx         0x00000000        0x0 linker stubs

.iplt           0x0800263c        0x0
 .iplt          0x00000000        0x0 ..\obj\usb_core.o

.rel.dyn        0x0800263c        0x0
 .rel.iplt      0x00000000        0x0 ..\obj\usb_core.o

.ARM.extab
 *(.ARM.extab* .gnu.linkonce.armextab.*)
                0x0800263c                __exidx_start = .

.ARM.exidx
 *(.ARM.exidx* .gnu.linkonce.armexidx.*)
                0x0800263c                __exidx_end = .
                0x0800263c                __etext = .
                0x0800263c                _sidata = __etext

.data           0x20000000       0xfc load address 0x0800263c
                0x20000000                __data_start__ = .
                0x20000000                _sdata = __data_start__
 *(vtable)
 *(.data*)
 .data          0x20000000        0xc ..\obj\keycodes.o
                0x20000000                key_buf
 .data          0x2000000c       0x1c ..\obj\usb_desc.o
                0x2000000c                RHID_StringSerial
 .data          0x20000028       0x98 ..\obj\usb_prop.o
                0x20000028                RHID_Hid_Descriptor
                0x20000030                RHID_Report_Descriptor
                0x20000038                String_Descriptor
                0x20000058                Config_Descriptor
                0x20000060                Device_Descriptor
                0x20000068                Device_Property
                0x20000098                User_Standard_Requests
                0x200000bc                Device_Table
 .data          0x200000c0        0x1 ..\obj\usb_pwr.o
                0x200000c0                fSuspendEnabled
 .data          0x200000c1        0x1 ..\obj\main.o
                0x200000c1                PrevXferComplete
 *fill*         0x200000c2        0x2 00
 .data          0x200000c4       0x38 ..\obj\usb_istr.o
                0x200000c4                pEpInt_OUT
                0x200000e0                pEpInt_IN
                0x200000fc                . = ALIGN (0x4)
                0x200000fc                PROVIDE (__preinit_array_start, .)
 *(.preinit_array)
                0x200000fc                PROVIDE (__preinit_array_end, .)
                0x200000fc                . = ALIGN (0x4)
                0x200000fc                PROVIDE (__init_array_start, .)
 *(SORT(.init_array.*))
 *(.init_array)
                0x200000fc                PROVIDE (__init_array_end, .)
                0x200000fc                . = ALIGN (0x4)
                0x200000fc                PROVIDE (__fini_array_start, .)
 *(SORT(.fini_array.*))
 *(.fini_array)
                0x200000fc                PROVIDE (__fini_array_end, .)
 *(.jcr*)
                0x200000fc                . = ALIGN (0x4)
                0x200000fc                __data_end__ = .
                0x200000fc                _edata = __data_end__

.igot.plt       0x200000fc        0x0 load address 0x08002738
 .igot.plt      0x00000000        0x0 ..\obj\usb_core.o

.bss            0x200000fc       0xd4 load address 0x08002738
                0x200000fc                . = ALIGN (0x4)
                0x200000fc                __bss_start__ = .
                0x200000fc                _sbss = __bss_start__
 *(.bss*)
 .bss           0x200000fc        0x1 ..\obj\usb_core.o
                0x200000fc                Data_Mul_MaxPacketSize
 .bss           0x200000fd        0x1 ..\obj\usb_prop.o
                0x200000fd                Request
 *fill*         0x200000fe        0x2 00
 .bss           0x20000100        0x8 ..\obj\usb_pwr.o
                0x20000100                remotewakeupon
                0x20000104                bDeviceState
 .bss           0x20000108        0xc ..\obj\usb_istr.o
                0x20000108                bIntPackSOF
                0x2000010c                esof_counter
                0x20000110                wCNTR
 *(COMMON)
 COMMON         0x20000114        0x2 ..\obj\usb_core.o
                0x20000114                StatusInfo
 COMMON         0x20000116        0x4 ..\obj\usb_int.o
                0x20000116                SaveRState
                0x20000118                SaveTState
 *fill*         0x2000011a        0x2 00
 COMMON         0x2000011c       0x14 ..\obj\hw_config.o
                0x2000011c                HSEStartUpStatus
                0x20000120                Buffer
                0x20000128                EXTI_InitStructure
 COMMON         0x20000130       0x45 ..\obj\usb_prop.o
                0x20000130                ProtocolValue
                0x20000134                Report_Buf
                0x20000174                EXTI_Enable
 *fill*         0x20000175        0x3 00
 COMMON         0x20000178       0x24 ..\obj\usb_pwr.o
                0x20000178                ResumeS
                0x2000017c                EP
 COMMON         0x2000019c       0x32 ..\obj\usb_init.o
                0x2000019c                SaveState
                0x200001a0                pProperty
                0x200001a4                EPindex
                0x200001a8                Device_Info
                0x200001c4                pUser_Standard_Requests
                0x200001c8                pInformation
                0x200001cc                wInterrupt_Mask
 COMMON         0x200001ce        0x2 ..\obj\usb_istr.o
                0x200001ce                wIstr
                0x200001d0                . = ALIGN (0x4)
                0x200001d0                __bss_end__ = .
                0x200001d0                _ebss = __bss_end__

.heap           0x200001d0        0x0
                0x200001d0                __end__ = .
                0x200001d0                _end = __end__
                0x200001d0                end = __end__
 *(.heap*)
                0x200001d0                __HeapLimit = .

.co_stack       0x200001d0      0x400 load address 0x0800280c
                0x200001d0                . = ALIGN (0x8)
 *(.co_stack .co_stack.*)
 .co_stack      0x200001d0      0x400 ..\obj\startup_stm32f10x_md.o
                0x200001d0                pulStack
                0x20005000                __StackTop = (ORIGIN (ram) + 0x5000)
                0x20004c00                __StackLimit = (__StackTop - SIZEOF (.co_stack))
                0x20005000                PROVIDE (__stack, __StackTop)
                0x00000001                ASSERT ((__StackLimit >= __HeapLimit), region ram  overflowed with stack)
LOAD ..\obj\usb_core.o
LOAD ..\obj\usb_int.o
LOAD ..\obj\system_stm32f10x.o
LOAD ..\obj\keycodes.o
LOAD ..\obj\usb_desc.o
LOAD ..\obj\usb_regs.o
LOAD ..\obj\stm32f10x_pwr.o
LOAD ..\obj\startup_stm32f10x_md.o
LOAD ..\obj\hw_config.o
LOAD ..\obj\stm32f10x_gpio.o
LOAD ..\obj\usb_prop.o
LOAD ..\obj\usb_pwr.o
LOAD ..\obj\usb_init.o
LOAD ..\obj\main.o
LOAD ..\obj\stm32f10x_rcc.o
LOAD ..\obj\stm32f10x_exti.o
LOAD ..\obj\usb_sil.o
LOAD ..\obj\syscalls.o
LOAD ..\obj\stm32_it.o
LOAD ..\obj\usb_endp.o
LOAD ..\obj\misc.o
LOAD ..\obj\usb_mem.o
LOAD ..\obj\usb_istr.o
START GROUP
LOAD c:/program files (x86)/gnu tools arm embedded/4.7 2013q3/bin/../lib/gcc/arm-none-eabi/4.7.4/armv7-m\libgcc.a
LOAD c:/program files (x86)/gnu tools arm embedded/4.7 2013q3/bin/../lib/gcc/arm-none-eabi/4.7.4/../../../../arm-none-eabi/lib/armv7-m\libg.a
LOAD c:/program files (x86)/gnu tools arm embedded/4.7 2013q3/bin/../lib/gcc/arm-none-eabi/4.7.4/../../../../arm-none-eabi/lib/armv7-m\libc.a
END GROUP
OUTPUT(Example_USB_Keyboard.elf elf32-littlearm)

.debug_info     0x00000000     0x7cd5
 .debug_info    0x00000000     0x100b ..\obj\usb_core.o
 .debug_info    0x0000100b      0x1ff ..\obj\usb_int.o
 .debug_info    0x0000120a      0x4db ..\obj\system_stm32f10x.o
 .debug_info    0x000016e5      0x157 ..\obj\keycodes.o
 .debug_info    0x0000183c      0x19c ..\obj\usb_desc.o
 .debug_info    0x000019d8      0xdba ..\obj\usb_regs.o
 .debug_info    0x00002792      0x12a ..\obj\startup_stm32f10x_md.o
 .debug_info    0x000028bc      0xb58 ..\obj\hw_config.o
 .debug_info    0x00003414      0x8da ..\obj\stm32f10x_gpio.o
 .debug_info    0x00003cee      0xde7 ..\obj\usb_prop.o
 .debug_info    0x00004ad5      0x687 ..\obj\usb_pwr.o
 .debug_info    0x0000515c      0x495 ..\obj\usb_init.o
 .debug_info    0x000055f1      0x852 ..\obj\main.o
 .debug_info    0x00005e43      0x9b5 ..\obj\stm32f10x_rcc.o
 .debug_info    0x000067f8      0x36b ..\obj\stm32f10x_exti.o
 .debug_info    0x00006b63      0x296 ..\obj\usb_sil.o
 .debug_info    0x00006df9      0x1c3 ..\obj\stm32_it.o
 .debug_info    0x00006fbc      0x137 ..\obj\usb_endp.o
 .debug_info    0x000070f3      0x594 ..\obj\misc.o
 .debug_info    0x00007687      0x1bc ..\obj\usb_mem.o
 .debug_info    0x00007843      0x492 ..\obj\usb_istr.o

.debug_abbrev   0x00000000     0x2463
 .debug_abbrev  0x00000000      0x41b ..\obj\usb_core.o
 .debug_abbrev  0x0000041b       0xfa ..\obj\usb_int.o
 .debug_abbrev  0x00000515      0x16e ..\obj\system_stm32f10x.o
 .debug_abbrev  0x00000683       0xb7 ..\obj\keycodes.o
 .debug_abbrev  0x0000073a       0x73 ..\obj\usb_desc.o
 .debug_abbrev  0x000007ad      0x230 ..\obj\usb_regs.o
 .debug_abbrev  0x000009dd       0xef ..\obj\startup_stm32f10x_md.o
 .debug_abbrev  0x00000acc      0x37d ..\obj\hw_config.o
 .debug_abbrev  0x00000e49      0x21f ..\obj\stm32f10x_gpio.o
 .debug_abbrev  0x00001068      0x311 ..\obj\usb_prop.o
 .debug_abbrev  0x00001379      0x289 ..\obj\usb_pwr.o
 .debug_abbrev  0x00001602      0x120 ..\obj\usb_init.o
 .debug_abbrev  0x00001722      0x2a6 ..\obj\main.o
 .debug_abbrev  0x000019c8      0x28d ..\obj\stm32f10x_rcc.o
 .debug_abbrev  0x00001c55      0x17c ..\obj\stm32f10x_exti.o
 .debug_abbrev  0x00001dd1      0x134 ..\obj\usb_sil.o
 .debug_abbrev  0x00001f05       0xd2 ..\obj\stm32_it.o
 .debug_abbrev  0x00001fd7       0xe7 ..\obj\usb_endp.o
 .debug_abbrev  0x000020be      0x152 ..\obj\misc.o
 .debug_abbrev  0x00002210       0xac ..\obj\usb_mem.o
 .debug_abbrev  0x000022bc      0x1a7 ..\obj\usb_istr.o

.debug_loc      0x00000000     0x4ca2
 .debug_loc     0x00000000      0xad5 ..\obj\usb_core.o
 .debug_loc     0x00000ad5      0x12d ..\obj\usb_int.o
 .debug_loc     0x00000c02      0x13a ..\obj\system_stm32f10x.o
 .debug_loc     0x00000d3c      0x104 ..\obj\keycodes.o
 .debug_loc     0x00000e40      0xc17 ..\obj\usb_regs.o
 .debug_loc     0x00001a57       0x20 ..\obj\startup_stm32f10x_md.o
 .debug_loc     0x00001a77      0x31e ..\obj\hw_config.o
 .debug_loc     0x00001d95     0x163d ..\obj\stm32f10x_gpio.o
 .debug_loc     0x000033d2      0x2b7 ..\obj\usb_prop.o
 .debug_loc     0x00003689      0x306 ..\obj\usb_pwr.o
 .debug_loc     0x0000398f       0x20 ..\obj\usb_init.o
 .debug_loc     0x000039af      0x1c4 ..\obj\main.o
 .debug_loc     0x00003b73      0x88d ..\obj\stm32f10x_rcc.o
 .debug_loc     0x00004400      0x24d ..\obj\stm32f10x_exti.o
 .debug_loc     0x0000464d      0x135 ..\obj\usb_sil.o
 .debug_loc     0x00004782      0x1bb ..\obj\misc.o
 .debug_loc     0x0000493d      0x241 ..\obj\usb_mem.o
 .debug_loc     0x00004b7e      0x124 ..\obj\usb_istr.o

.debug_aranges  0x00000000      0x850
 .debug_aranges
                0x00000000       0x98 ..\obj\usb_core.o
 .debug_aranges
                0x00000098       0x28 ..\obj\usb_int.o
 .debug_aranges
                0x000000c0       0x28 ..\obj\system_stm32f10x.o
 .debug_aranges
                0x000000e8       0x28 ..\obj\keycodes.o
 .debug_aranges
                0x00000110       0x18 ..\obj\usb_desc.o
 .debug_aranges
                0x00000128      0x1f0 ..\obj\usb_regs.o
 .debug_aranges
                0x00000318       0x28 ..\obj\startup_stm32f10x_md.o
 .debug_aranges
                0x00000340       0x60 ..\obj\hw_config.o
 .debug_aranges
                0x000003a0       0xa8 ..\obj\stm32f10x_gpio.o
 .debug_aranges
                0x00000448       0xa0 ..\obj\usb_prop.o
 .debug_aranges
                0x000004e8       0x40 ..\obj\usb_pwr.o
 .debug_aranges
                0x00000528       0x20 ..\obj\usb_init.o
 .debug_aranges
                0x00000548       0x48 ..\obj\main.o
 .debug_aranges
                0x00000590      0x118 ..\obj\stm32f10x_rcc.o
 .debug_aranges
                0x000006a8       0x58 ..\obj\stm32f10x_exti.o
 .debug_aranges
                0x00000700       0x30 ..\obj\usb_sil.o
 .debug_aranges
                0x00000730       0x70 ..\obj\stm32_it.o
 .debug_aranges
                0x000007a0       0x28 ..\obj\usb_endp.o
 .debug_aranges
                0x000007c8       0x40 ..\obj\misc.o
 .debug_aranges
                0x00000808       0x28 ..\obj\usb_mem.o
 .debug_aranges
                0x00000830       0x20 ..\obj\usb_istr.o

.debug_ranges   0x00000000      0xd78
 .debug_ranges  0x00000000      0x2f0 ..\obj\usb_core.o
 .debug_ranges  0x000002f0       0x30 ..\obj\usb_int.o
 .debug_ranges  0x00000320       0x90 ..\obj\system_stm32f10x.o
 .debug_ranges  0x000003b0       0x18 ..\obj\keycodes.o
 .debug_ranges  0x000003c8      0x360 ..\obj\usb_regs.o
 .debug_ranges  0x00000728       0x18 ..\obj\startup_stm32f10x_md.o
 .debug_ranges  0x00000740      0x130 ..\obj\hw_config.o
 .debug_ranges  0x00000870       0x98 ..\obj\stm32f10x_gpio.o
 .debug_ranges  0x00000908       0xc0 ..\obj\usb_prop.o
 .debug_ranges  0x000009c8       0xb0 ..\obj\usb_pwr.o
 .debug_ranges  0x00000a78       0x10 ..\obj\usb_init.o
 .debug_ranges  0x00000a88       0x80 ..\obj\main.o
 .debug_ranges  0x00000b08      0x138 ..\obj\stm32f10x_rcc.o
 .debug_ranges  0x00000c40       0x48 ..\obj\stm32f10x_exti.o
 .debug_ranges  0x00000c88       0x20 ..\obj\usb_sil.o
 .debug_ranges  0x00000ca8       0x60 ..\obj\stm32_it.o
 .debug_ranges  0x00000d08       0x18 ..\obj\usb_endp.o
 .debug_ranges  0x00000d20       0x30 ..\obj\misc.o
 .debug_ranges  0x00000d50       0x18 ..\obj\usb_mem.o
 .debug_ranges  0x00000d68       0x10 ..\obj\usb_istr.o

.debug_line     0x00000000     0x4425
 .debug_line    0x00000000      0x616 ..\obj\usb_core.o
 .debug_line    0x00000616      0x278 ..\obj\usb_int.o
 .debug_line    0x0000088e      0x209 ..\obj\system_stm32f10x.o
 .debug_line    0x00000a97      0x13e ..\obj\keycodes.o
 .debug_line    0x00000bd5      0x177 ..\obj\usb_desc.o
 .debug_line    0x00000d4c      0x7af ..\obj\usb_regs.o
 .debug_line    0x000014fb       0xd1 ..\obj\startup_stm32f10x_md.o
 .debug_line    0x000015cc      0x5b8 ..\obj\hw_config.o
 .debug_line    0x00001b84      0x578 ..\obj\stm32f10x_gpio.o
 .debug_line    0x000020fc      0x445 ..\obj\usb_prop.o
 .debug_line    0x00002541      0x3a9 ..\obj\usb_pwr.o
 .debug_line    0x000028ea      0x19e ..\obj\usb_init.o
 .debug_line    0x00002a88      0x3e5 ..\obj\main.o
 .debug_line    0x00002e6d      0x50d ..\obj\stm32f10x_rcc.o
 .debug_line    0x0000337a      0x30e ..\obj\stm32f10x_exti.o
 .debug_line    0x00003688      0x1e3 ..\obj\usb_sil.o
 .debug_line    0x0000386b      0x2ef ..\obj\stm32_it.o
 .debug_line    0x00003b5a      0x1aa ..\obj\usb_endp.o
 .debug_line    0x00003d04      0x2a3 ..\obj\misc.o
 .debug_line    0x00003fa7      0x1e8 ..\obj\usb_mem.o
 .debug_line    0x0000418f      0x296 ..\obj\usb_istr.o

.debug_str      0x00000000     0x2b1e
 .debug_str     0x00000000      0x93c ..\obj\usb_core.o
                                0xac1 (size before relaxing)
 .debug_str     0x0000093c       0xa5 ..\obj\usb_int.o
                                0x1f1 (size before relaxing)
 .debug_str     0x000009e1      0x1a2 ..\obj\system_stm32f10x.o
                                0x2c0 (size before relaxing)
 .debug_str     0x00000b83       0x79 ..\obj\keycodes.o
                                0x164 (size before relaxing)
 .debug_str     0x00000bfc       0xf9 ..\obj\usb_desc.o
                                0x1ec (size before relaxing)
 .debug_str     0x00000cf5      0x3ce ..\obj\usb_regs.o
                                0x552 (size before relaxing)
 .debug_str     0x000010c3       0xdb ..\obj\startup_stm32f10x_md.o
                                0x14a (size before relaxing)
 .debug_str     0x0000119e      0x820 ..\obj\hw_config.o
                                0xa83 (size before relaxing)
 .debug_str     0x000019be      0x287 ..\obj\stm32f10x_gpio.o
                                0x501 (size before relaxing)
 .debug_str     0x00001c45      0x2b1 ..\obj\usb_prop.o
                                0xac7 (size before relaxing)
 .debug_str     0x00001ef6      0x177 ..\obj\usb_pwr.o
                                0x407 (size before relaxing)
 .debug_str     0x0000206d       0x81 ..\obj\usb_init.o
                                0x515 (size before relaxing)
 .debug_str     0x000020ee      0x147 ..\obj\main.o
                                0x3a4 (size before relaxing)
 .debug_str     0x00002235      0x2f0 ..\obj\stm32f10x_rcc.o
                                0x5eb (size before relaxing)
 .debug_str     0x00002525      0x10a ..\obj\stm32f10x_exti.o
                                0x32f (size before relaxing)
 .debug_str     0x0000262f       0xa8 ..\obj\usb_sil.o
                                0x232 (size before relaxing)
 .debug_str     0x000026d7      0x11f ..\obj\stm32_it.o
                                0x22a (size before relaxing)
 .debug_str     0x000027f6       0x9e ..\obj\usb_endp.o
                                0x1b9 (size before relaxing)
 .debug_str     0x00002894      0x166 ..\obj\misc.o
                                0x39a (size before relaxing)
 .debug_str     0x000029fa       0x9d ..\obj\usb_mem.o
                                0x1ca (size before relaxing)
 .debug_str     0x00002a97       0x87 ..\obj\usb_istr.o
                                0x41c (size before relaxing)

.comment        0x00000000       0x70
 .comment       0x00000000       0x70 ..\obj\usb_core.o
                                 0x71 (size before relaxing)
 .comment       0x00000000       0x71 ..\obj\usb_int.o
 .comment       0x00000000       0x71 ..\obj\system_stm32f10x.o
 .comment       0x00000000       0x71 ..\obj\keycodes.o
 .comment       0x00000000       0x71 ..\obj\usb_desc.o
 .comment       0x00000000       0x71 ..\obj\usb_regs.o
 .comment       0x00000000       0x71 ..\obj\startup_stm32f10x_md.o
 .comment       0x00000000       0x71 ..\obj\hw_config.o
 .comment       0x00000000       0x71 ..\obj\stm32f10x_gpio.o
 .comment       0x00000000       0x71 ..\obj\usb_prop.o
 .comment       0x00000000       0x71 ..\obj\usb_pwr.o
 .comment       0x00000000       0x71 ..\obj\usb_init.o
 .comment       0x00000000       0x71 ..\obj\main.o
 .comment       0x00000000       0x71 ..\obj\stm32f10x_rcc.o
 .comment       0x00000000       0x71 ..\obj\stm32f10x_exti.o
 .comment       0x00000000       0x71 ..\obj\usb_sil.o
 .comment       0x00000000       0x71 ..\obj\stm32_it.o
 .comment       0x00000000       0x71 ..\obj\usb_endp.o
 .comment       0x00000000       0x71 ..\obj\misc.o
 .comment       0x00000000       0x71 ..\obj\usb_mem.o
 .comment       0x00000000       0x71 ..\obj\usb_istr.o

.ARM.attributes
                0x00000000       0x33
 .ARM.attributes
                0x00000000       0x33 ..\obj\usb_core.o
 .ARM.attributes
                0x00000033       0x33 ..\obj\usb_int.o
 .ARM.attributes
                0x00000066       0x33 ..\obj\system_stm32f10x.o
 .ARM.attributes
                0x00000099       0x33 ..\obj\keycodes.o
 .ARM.attributes
                0x000000cc       0x33 ..\obj\usb_desc.o
 .ARM.attributes
                0x000000ff       0x33 ..\obj\usb_regs.o
 .ARM.attributes
                0x00000132       0x33 ..\obj\startup_stm32f10x_md.o
 .ARM.attributes
                0x00000165       0x33 ..\obj\hw_config.o
 .ARM.attributes
                0x00000198       0x33 ..\obj\stm32f10x_gpio.o
 .ARM.attributes
                0x000001cb       0x33 ..\obj\usb_prop.o
 .ARM.attributes
                0x000001fe       0x33 ..\obj\usb_pwr.o
 .ARM.attributes
                0x00000231       0x33 ..\obj\usb_init.o
 .ARM.attributes
                0x00000264       0x33 ..\obj\main.o
 .ARM.attributes
                0x00000297       0x33 ..\obj\stm32f10x_rcc.o
 .ARM.attributes
                0x000002ca       0x33 ..\obj\stm32f10x_exti.o
 .ARM.attributes
                0x000002fd       0x33 ..\obj\usb_sil.o
 .ARM.attributes
                0x00000330       0x33 ..\obj\stm32_it.o
 .ARM.attributes
                0x00000363       0x33 ..\obj\usb_endp.o
 .ARM.attributes
                0x00000396       0x33 ..\obj\misc.o
 .ARM.attributes
                0x000003c9       0x33 ..\obj\usb_mem.o
 .ARM.attributes
                0x000003fc       0x33 ..\obj\usb_istr.o

.debug_frame    0x00000000     0x1048
 .debug_frame   0x00000000      0x1b0 ..\obj\usb_core.o
 .debug_frame   0x000001b0       0x5c ..\obj\usb_int.o
 .debug_frame   0x0000020c       0x34 ..\obj\system_stm32f10x.o
 .debug_frame   0x00000240       0x30 ..\obj\keycodes.o
 .debug_frame   0x00000270      0x3e4 ..\obj\usb_regs.o
 .debug_frame   0x00000654       0x3c ..\obj\startup_stm32f10x_md.o
 .debug_frame   0x00000690       0xd0 ..\obj\hw_config.o
 .debug_frame   0x00000760      0x160 ..\obj\stm32f10x_gpio.o
 .debug_frame   0x000008c0      0x138 ..\obj\usb_prop.o
 .debug_frame   0x000009f8       0x9c ..\obj\usb_pwr.o
 .debug_frame   0x00000a94       0x28 ..\obj\usb_init.o
 .debug_frame   0x00000abc       0xb4 ..\obj\main.o
 .debug_frame   0x00000b70      0x21c ..\obj\stm32f10x_rcc.o
 .debug_frame   0x00000d8c       0x98 ..\obj\stm32f10x_exti.o
 .debug_frame   0x00000e24       0x60 ..\obj\usb_sil.o
 .debug_frame   0x00000e84       0xc0 ..\obj\stm32_it.o
 .debug_frame   0x00000f44       0x30 ..\obj\usb_endp.o
 .debug_frame   0x00000f74       0x68 ..\obj\misc.o
 .debug_frame   0x00000fdc       0x40 ..\obj\usb_mem.o
 .debug_frame   0x0000101c       0x2c ..\obj\usb_istr.o
