
Allocating common symbols
Common symbol       size              file

settings            0x18              ..\obj\flash.o
dirty_buf           0x64              ..\obj\main.o
buf                 0x64              ..\obj\main.o

Discarded input sections

 .text          0x00000000        0x0 ..\obj\stm32f10x_tim.o
 .data          0x00000000        0x0 ..\obj\stm32f10x_tim.o
 .bss           0x00000000        0x0 ..\obj\stm32f10x_tim.o
 .text.TIM_DeInit
                0x00000000      0x22c ..\obj\stm32f10x_tim.o
 .text.TIM_TimeBaseInit
                0x00000000       0xf8 ..\obj\stm32f10x_tim.o
 .text.TIM_OC1Init
                0x00000000      0x118 ..\obj\stm32f10x_tim.o
 .text.TIM_OC2Init
                0x00000000      0x110 ..\obj\stm32f10x_tim.o
 .text.TIM_OC3Init
                0x00000000      0x10c ..\obj\stm32f10x_tim.o
 .text.TIM_OC4Init
                0x00000000       0xd0 ..\obj\stm32f10x_tim.o
 .text.TIM_ICInit
                0x00000000       0xa8 ..\obj\stm32f10x_tim.o
 .text.TIM_PWMIConfig
                0x00000000       0xb8 ..\obj\stm32f10x_tim.o
 .text.TIM_BDTRConfig
                0x00000000       0x4e ..\obj\stm32f10x_tim.o
 .text.TIM_TimeBaseStructInit
                0x00000000       0x32 ..\obj\stm32f10x_tim.o
 .text.TIM_OCStructInit
                0x00000000       0x42 ..\obj\stm32f10x_tim.o
 .text.TIM_ICStructInit
                0x00000000       0x30 ..\obj\stm32f10x_tim.o
 .text.TIM_BDTRStructInit
                0x00000000       0x3c ..\obj\stm32f10x_tim.o
 .text.TIM_Cmd  0x00000000       0x3e ..\obj\stm32f10x_tim.o
 .text.TIM_CtrlPWMOutputs
                0x00000000       0x4a ..\obj\stm32f10x_tim.o
 .text.TIM_ITConfig
                0x00000000       0x46 ..\obj\stm32f10x_tim.o
 .text.TIM_GenerateEvent
                0x00000000       0x1c ..\obj\stm32f10x_tim.o
 .text.TIM_DMAConfig
                0x00000000       0x28 ..\obj\stm32f10x_tim.o
 .text.TIM_DMACmd
                0x00000000       0x46 ..\obj\stm32f10x_tim.o
 .text.TIM_InternalClockConfig
                0x00000000       0x22 ..\obj\stm32f10x_tim.o
 .text.TIM_ITRxExternalClockConfig
                0x00000000       0x2e ..\obj\stm32f10x_tim.o
 .text.TIM_TIxExternalClockConfig
                0x00000000       0x5c ..\obj\stm32f10x_tim.o
 .text.TIM_ETRClockMode1Config
                0x00000000       0x5e ..\obj\stm32f10x_tim.o
 .text.TIM_ETRClockMode2Config
                0x00000000       0x3e ..\obj\stm32f10x_tim.o
 .text.TIM_ETRConfig
                0x00000000       0x52 ..\obj\stm32f10x_tim.o
 .text.TIM_PrescalerConfig
                0x00000000       0x26 ..\obj\stm32f10x_tim.o
 .text.TIM_CounterModeConfig
                0x00000000       0x36 ..\obj\stm32f10x_tim.o
 .text.TIM_SelectInputTrigger
                0x00000000       0x36 ..\obj\stm32f10x_tim.o
 .text.TIM_EncoderInterfaceConfig
                0x00000000       0x96 ..\obj\stm32f10x_tim.o
 .text.TIM_ForcedOC1Config
                0x00000000       0x36 ..\obj\stm32f10x_tim.o
 .text.TIM_ForcedOC2Config
                0x00000000       0x3a ..\obj\stm32f10x_tim.o
 .text.TIM_ForcedOC3Config
                0x00000000       0x36 ..\obj\stm32f10x_tim.o
 .text.TIM_ForcedOC4Config
                0x00000000       0x3a ..\obj\stm32f10x_tim.o
 .text.TIM_ARRPreloadConfig
                0x00000000       0x3e ..\obj\stm32f10x_tim.o
 .text.TIM_SelectCOM
                0x00000000       0x3e ..\obj\stm32f10x_tim.o
 .text.TIM_SelectCCDMA
                0x00000000       0x3e ..\obj\stm32f10x_tim.o
 .text.TIM_CCPreloadControl
                0x00000000       0x3e ..\obj\stm32f10x_tim.o
 .text.TIM_OC1PreloadConfig
                0x00000000       0x36 ..\obj\stm32f10x_tim.o
 .text.TIM_OC2PreloadConfig
                0x00000000       0x3a ..\obj\stm32f10x_tim.o
 .text.TIM_OC3PreloadConfig
                0x00000000       0x36 ..\obj\stm32f10x_tim.o
 .text.TIM_OC4PreloadConfig
                0x00000000       0x3a ..\obj\stm32f10x_tim.o
 .text.TIM_OC1FastConfig
                0x00000000       0x36 ..\obj\stm32f10x_tim.o
 .text.TIM_OC2FastConfig
                0x00000000       0x3a ..\obj\stm32f10x_tim.o
 .text.TIM_OC3FastConfig
                0x00000000       0x36 ..\obj\stm32f10x_tim.o
 .text.TIM_OC4FastConfig
                0x00000000       0x3a ..\obj\stm32f10x_tim.o
 .text.TIM_ClearOC1Ref
                0x00000000       0x36 ..\obj\stm32f10x_tim.o
 .text.TIM_ClearOC2Ref
                0x00000000       0x3a ..\obj\stm32f10x_tim.o
 .text.TIM_ClearOC3Ref
                0x00000000       0x36 ..\obj\stm32f10x_tim.o
 .text.TIM_ClearOC4Ref
                0x00000000       0x3a ..\obj\stm32f10x_tim.o
 .text.TIM_OC1PolarityConfig
                0x00000000       0x36 ..\obj\stm32f10x_tim.o
 .text.TIM_OC1NPolarityConfig
                0x00000000       0x36 ..\obj\stm32f10x_tim.o
 .text.TIM_OC2PolarityConfig
                0x00000000       0x3a ..\obj\stm32f10x_tim.o
 .text.TIM_OC2NPolarityConfig
                0x00000000       0x3a ..\obj\stm32f10x_tim.o
 .text.TIM_OC3PolarityConfig
                0x00000000       0x3a ..\obj\stm32f10x_tim.o
 .text.TIM_OC3NPolarityConfig
                0x00000000       0x3a ..\obj\stm32f10x_tim.o
 .text.TIM_OC4PolarityConfig
                0x00000000       0x3a ..\obj\stm32f10x_tim.o
 .text.TIM_CCxCmd
                0x00000000       0x54 ..\obj\stm32f10x_tim.o
 .text.TIM_CCxNCmd
                0x00000000       0x54 ..\obj\stm32f10x_tim.o
 .text.TIM_SelectOCxM
                0x00000000       0xac ..\obj\stm32f10x_tim.o
 .text.TIM_UpdateDisableConfig
                0x00000000       0x3e ..\obj\stm32f10x_tim.o
 .text.TIM_UpdateRequestConfig
                0x00000000       0x3e ..\obj\stm32f10x_tim.o
 .text.TIM_SelectHallSensor
                0x00000000       0x3e ..\obj\stm32f10x_tim.o
 .text.TIM_SelectOnePulseMode
                0x00000000       0x36 ..\obj\stm32f10x_tim.o
 .text.TIM_SelectOutputTrigger
                0x00000000       0x36 ..\obj\stm32f10x_tim.o
 .text.TIM_SelectSlaveMode
                0x00000000       0x36 ..\obj\stm32f10x_tim.o
 .text.TIM_SelectMasterSlaveMode
                0x00000000       0x36 ..\obj\stm32f10x_tim.o
 .text.TIM_SetCounter
                0x00000000       0x1c ..\obj\stm32f10x_tim.o
 .text.TIM_SetAutoreload
                0x00000000       0x1c ..\obj\stm32f10x_tim.o
 .text.TIM_SetCompare1
                0x00000000       0x1c ..\obj\stm32f10x_tim.o
 .text.TIM_SetCompare2
                0x00000000       0x1c ..\obj\stm32f10x_tim.o
 .text.TIM_SetCompare3
                0x00000000       0x1c ..\obj\stm32f10x_tim.o
 .text.TIM_SetCompare4
                0x00000000       0x1e ..\obj\stm32f10x_tim.o
 .text.TIM_SetIC1Prescaler
                0x00000000       0x36 ..\obj\stm32f10x_tim.o
 .text.TIM_SetIC2Prescaler
                0x00000000       0x3a ..\obj\stm32f10x_tim.o
 .text.TIM_SetIC3Prescaler
                0x00000000       0x36 ..\obj\stm32f10x_tim.o
 .text.TIM_SetIC4Prescaler
                0x00000000       0x3a ..\obj\stm32f10x_tim.o
 .text.TIM_SetClockDivision
                0x00000000       0x36 ..\obj\stm32f10x_tim.o
 .text.TIM_GetCapture1
                0x00000000       0x18 ..\obj\stm32f10x_tim.o
 .text.TIM_GetCapture2
                0x00000000       0x18 ..\obj\stm32f10x_tim.o
 .text.TIM_GetCapture3
                0x00000000       0x18 ..\obj\stm32f10x_tim.o
 .text.TIM_GetCapture4
                0x00000000       0x1a ..\obj\stm32f10x_tim.o
 .text.TIM_GetCounter
                0x00000000       0x18 ..\obj\stm32f10x_tim.o
 .text.TIM_GetPrescaler
                0x00000000       0x18 ..\obj\stm32f10x_tim.o
 .text.TIM_GetFlagStatus
                0x00000000       0x36 ..\obj\stm32f10x_tim.o
 .text.TIM_ClearFlag
                0x00000000       0x20 ..\obj\stm32f10x_tim.o
 .text.TIM_GetITStatus
                0x00000000       0x52 ..\obj\stm32f10x_tim.o
 .text.TIM_ClearITPendingBit
                0x00000000       0x20 ..\obj\stm32f10x_tim.o
 .text.TI1_Config
                0x00000000       0xe0 ..\obj\stm32f10x_tim.o
 .text.TI2_Config
                0x00000000       0xf4 ..\obj\stm32f10x_tim.o
 .text.TI3_Config
                0x00000000       0xec ..\obj\stm32f10x_tim.o
 .text.TI4_Config
                0x00000000       0xf8 ..\obj\stm32f10x_tim.o
 .debug_info    0x00000000     0x1c67 ..\obj\stm32f10x_tim.o
 .debug_abbrev  0x00000000      0x1c1 ..\obj\stm32f10x_tim.o
 .debug_aranges
                0x00000000      0x2f0 ..\obj\stm32f10x_tim.o
 .debug_ranges  0x00000000      0x2e0 ..\obj\stm32f10x_tim.o
 .debug_line    0x00000000      0xb2a ..\obj\stm32f10x_tim.o
 .debug_str     0x00000000      0xde2 ..\obj\stm32f10x_tim.o
 .comment       0x00000000       0x80 ..\obj\stm32f10x_tim.o
 .debug_frame   0x00000000      0xe2c ..\obj\stm32f10x_tim.o
 .ARM.attributes
                0x00000000       0x33 ..\obj\stm32f10x_tim.o
 .text          0x00000000        0x0 ..\obj\startup_stm32f10x_md_vl.o
 .data          0x00000000        0x0 ..\obj\startup_stm32f10x_md_vl.o
 .bss           0x00000000        0x0 ..\obj\startup_stm32f10x_md_vl.o
 .text          0x00000000        0x0 ..\obj\flash.o
 .data          0x00000000        0x0 ..\obj\flash.o
 .bss           0x00000000        0x0 ..\obj\flash.o
 .text          0x00000000        0x0 ..\obj\system_stm32f10x.o
 .bss           0x00000000        0x0 ..\obj\system_stm32f10x.o
 .text.SystemCoreClockUpdate
                0x00000000       0xd4 ..\obj\system_stm32f10x.o
 .text          0x00000000        0x0 ..\obj\stm32f10x_gpio.o
 .data          0x00000000        0x0 ..\obj\stm32f10x_gpio.o
 .bss           0x00000000        0x0 ..\obj\stm32f10x_gpio.o
 .text.GPIO_DeInit
                0x00000000       0xe4 ..\obj\stm32f10x_gpio.o
 .text.GPIO_AFIODeInit
                0x00000000       0x18 ..\obj\stm32f10x_gpio.o
 .text.GPIO_StructInit
                0x00000000       0x26 ..\obj\stm32f10x_gpio.o
 .text.GPIO_ReadInputDataBit
                0x00000000       0x32 ..\obj\stm32f10x_gpio.o
 .text.GPIO_ReadOutputDataBit
                0x00000000       0x32 ..\obj\stm32f10x_gpio.o
 .text.GPIO_ReadOutputData
                0x00000000       0x18 ..\obj\stm32f10x_gpio.o
 .text.GPIO_WriteBit
                0x00000000       0x2e ..\obj\stm32f10x_gpio.o
 .text.GPIO_Write
                0x00000000       0x1c ..\obj\stm32f10x_gpio.o
 .text.GPIO_PinLockConfig
                0x00000000       0x42 ..\obj\stm32f10x_gpio.o
 .text.GPIO_EventOutputConfig
                0x00000000       0x4c ..\obj\stm32f10x_gpio.o
 .text.GPIO_EventOutputCmd
                0x00000000       0x20 ..\obj\stm32f10x_gpio.o
 .text.GPIO_PinRemapConfig
                0x00000000       0xe0 ..\obj\stm32f10x_gpio.o
 .text.GPIO_EXTILineConfig
                0x00000000       0x84 ..\obj\stm32f10x_gpio.o
 .text.GPIO_ETH_MediaInterfaceConfig
                0x00000000       0x1c ..\obj\stm32f10x_gpio.o
 .text          0x00000000        0x0 ..\obj\main.o
 .text.xor_csum
                0x00000000       0x44 ..\obj\main.o
 .text.Out_Pelco_D
                0x00000000       0x8c ..\obj\main.o
 .text.Out_Pelco_D1
                0x00000000       0x8c ..\obj\main.o
 .text.Camera_Save_position
                0x00000000       0x34 ..\obj\main.o
 .text.Camera_Move_position
                0x00000000       0x34 ..\obj\main.o
 .text.Camera_Wiper
                0x00000000       0x28 ..\obj\main.o
 .text.Camera_Run_Tur_1
                0x00000000       0x28 ..\obj\main.o
 .text.relay_ON
                0x00000000       0x14 ..\obj\main.o
 .text.relay_OFF
                0x00000000       0x14 ..\obj\main.o
 .text          0x00000000        0x0 ..\obj\stm32f10x_rcc.o
 .bss           0x00000000        0x0 ..\obj\stm32f10x_rcc.o
 .text.RCC_DeInit
                0x00000000       0x64 ..\obj\stm32f10x_rcc.o
 .text.RCC_HSEConfig
                0x00000000       0x5c ..\obj\stm32f10x_rcc.o
 .text.RCC_WaitForHSEStartUp
                0x00000000       0x50 ..\obj\stm32f10x_rcc.o
 .text.RCC_AdjustHSICalibrationValue
                0x00000000       0x3c ..\obj\stm32f10x_rcc.o
 .text.RCC_HSICmd
                0x00000000       0x20 ..\obj\stm32f10x_rcc.o
 .text.RCC_PLLConfig
                0x00000000       0x3c ..\obj\stm32f10x_rcc.o
 .text.RCC_PLLCmd
                0x00000000       0x20 ..\obj\stm32f10x_rcc.o
 .text.RCC_PREDIV1Config
                0x00000000       0x40 ..\obj\stm32f10x_rcc.o
 .text.RCC_SYSCLKConfig
                0x00000000       0x38 ..\obj\stm32f10x_rcc.o
 .text.RCC_GetSYSCLKSource
                0x00000000       0x1c ..\obj\stm32f10x_rcc.o
 .text.RCC_HCLKConfig
                0x00000000       0x38 ..\obj\stm32f10x_rcc.o
 .text.RCC_PCLK1Config
                0x00000000       0x38 ..\obj\stm32f10x_rcc.o
 .text.RCC_PCLK2Config
                0x00000000       0x38 ..\obj\stm32f10x_rcc.o
 .text.RCC_ITConfig
                0x00000000       0x4c ..\obj\stm32f10x_rcc.o
 .text.RCC_USBCLKConfig
                0x00000000       0x1c ..\obj\stm32f10x_rcc.o
 .text.RCC_ADCCLKConfig
                0x00000000       0x38 ..\obj\stm32f10x_rcc.o
 .text.RCC_LSEConfig
                0x00000000       0x40 ..\obj\stm32f10x_rcc.o
 .text.RCC_LSICmd
                0x00000000       0x20 ..\obj\stm32f10x_rcc.o
 .text.RCC_RTCCLKConfig
                0x00000000       0x24 ..\obj\stm32f10x_rcc.o
 .text.RCC_RTCCLKCmd
                0x00000000       0x20 ..\obj\stm32f10x_rcc.o
 .text.RCC_AHBPeriphClockCmd
                0x00000000       0x3c ..\obj\stm32f10x_rcc.o
 .text.RCC_APB1PeriphClockCmd
                0x00000000       0x3c ..\obj\stm32f10x_rcc.o
 .text.RCC_APB2PeriphResetCmd
                0x00000000       0x3c ..\obj\stm32f10x_rcc.o
 .text.RCC_APB1PeriphResetCmd
                0x00000000       0x3c ..\obj\stm32f10x_rcc.o
 .text.RCC_BackupResetCmd
                0x00000000       0x20 ..\obj\stm32f10x_rcc.o
 .text.RCC_ClockSecuritySystemCmd
                0x00000000       0x20 ..\obj\stm32f10x_rcc.o
 .text.RCC_MCOConfig
                0x00000000       0x20 ..\obj\stm32f10x_rcc.o
 .text.RCC_GetFlagStatus
                0x00000000       0x74 ..\obj\stm32f10x_rcc.o
 .text.RCC_ClearFlag
                0x00000000       0x1c ..\obj\stm32f10x_rcc.o
 .text.RCC_GetITStatus
                0x00000000       0x34 ..\obj\stm32f10x_rcc.o
 .text.RCC_ClearITPendingBit
                0x00000000       0x20 ..\obj\stm32f10x_rcc.o
 .text          0x00000000        0x0 ..\obj\stm32f10x_exti.o
 .data          0x00000000        0x0 ..\obj\stm32f10x_exti.o
 .bss           0x00000000        0x0 ..\obj\stm32f10x_exti.o
 .text.EXTI_DeInit
                0x00000000       0x34 ..\obj\stm32f10x_exti.o
 .text.EXTI_Init
                0x00000000       0xe4 ..\obj\stm32f10x_exti.o
 .text.EXTI_StructInit
                0x00000000       0x2a ..\obj\stm32f10x_exti.o
 .text.EXTI_GenerateSWInterrupt
                0x00000000       0x24 ..\obj\stm32f10x_exti.o
 .text.EXTI_GetFlagStatus
                0x00000000       0x34 ..\obj\stm32f10x_exti.o
 .text.EXTI_ClearFlag
                0x00000000       0x1c ..\obj\stm32f10x_exti.o
 .text.EXTI_GetITStatus
                0x00000000       0x48 ..\obj\stm32f10x_exti.o
 .text.EXTI_ClearITPendingBit
                0x00000000       0x1c ..\obj\stm32f10x_exti.o
 .debug_info    0x00000000      0x35c ..\obj\stm32f10x_exti.o
 .debug_abbrev  0x00000000      0x166 ..\obj\stm32f10x_exti.o
 .debug_aranges
                0x00000000       0x58 ..\obj\stm32f10x_exti.o
 .debug_ranges  0x00000000       0x48 ..\obj\stm32f10x_exti.o
 .debug_line    0x00000000      0x280 ..\obj\stm32f10x_exti.o
 .debug_str     0x00000000      0x34e ..\obj\stm32f10x_exti.o
 .comment       0x00000000       0x80 ..\obj\stm32f10x_exti.o
 .debug_frame   0x00000000      0x148 ..\obj\stm32f10x_exti.o
 .ARM.attributes
                0x00000000       0x33 ..\obj\stm32f10x_exti.o
 .text          0x00000000        0x0 ..\obj\stm32f10x_usart.o
 .data          0x00000000        0x0 ..\obj\stm32f10x_usart.o
 .bss           0x00000000        0x0 ..\obj\stm32f10x_usart.o
 .text.USART_DeInit
                0x00000000       0xb8 ..\obj\stm32f10x_usart.o
 .text.USART_StructInit
                0x00000000       0x38 ..\obj\stm32f10x_usart.o
 .text.USART_ClockInit
                0x00000000       0x56 ..\obj\stm32f10x_usart.o
 .text.USART_ClockStructInit
                0x00000000       0x2a ..\obj\stm32f10x_usart.o
 .text.USART_DMACmd
                0x00000000       0x46 ..\obj\stm32f10x_usart.o
 .text.USART_SetAddress
                0x00000000       0x38 ..\obj\stm32f10x_usart.o
 .text.USART_WakeUpConfig
                0x00000000       0x36 ..\obj\stm32f10x_usart.o
 .text.USART_ReceiverWakeUpCmd
                0x00000000       0x3e ..\obj\stm32f10x_usart.o
 .text.USART_LINBreakDetectLengthConfig
                0x00000000       0x36 ..\obj\stm32f10x_usart.o
 .text.USART_LINCmd
                0x00000000       0x3e ..\obj\stm32f10x_usart.o
 .text.USART_SendBreak
                0x00000000       0x22 ..\obj\stm32f10x_usart.o
 .text.USART_SetGuardTime
                0x00000000       0x3a ..\obj\stm32f10x_usart.o
 .text.USART_SetPrescaler
                0x00000000       0x38 ..\obj\stm32f10x_usart.o
 .text.USART_SmartCardCmd
                0x00000000       0x3e ..\obj\stm32f10x_usart.o
 .text.USART_SmartCardNACKCmd
                0x00000000       0x3e ..\obj\stm32f10x_usart.o
 .text.USART_HalfDuplexCmd
                0x00000000       0x3e ..\obj\stm32f10x_usart.o
 .text.USART_OverSampling8Cmd
                0x00000000       0x42 ..\obj\stm32f10x_usart.o
 .text.USART_OneBitMethodCmd
                0x00000000       0x3e ..\obj\stm32f10x_usart.o
 .text.USART_IrDAConfig
                0x00000000       0x36 ..\obj\stm32f10x_usart.o
 .text.USART_IrDACmd
                0x00000000       0x3e ..\obj\stm32f10x_usart.o
 .text          0x00000000        0x0 ..\obj\stm32f10x_flash.o
 .data          0x00000000        0x0 ..\obj\stm32f10x_flash.o
 .bss           0x00000000        0x0 ..\obj\stm32f10x_flash.o
 .text.FLASH_HalfCycleAccessCmd
                0x00000000       0x30 ..\obj\stm32f10x_flash.o
 .text.FLASH_UnlockBank1
                0x00000000       0x24 ..\obj\stm32f10x_flash.o
 .text.FLASH_LockBank1
                0x00000000       0x1c ..\obj\stm32f10x_flash.o
 .text.FLASH_EraseAllPages
                0x00000000       0x5c ..\obj\stm32f10x_flash.o
 .text.FLASH_EraseAllBank1Pages
                0x00000000       0x5c ..\obj\stm32f10x_flash.o
 .text.FLASH_EraseOptionBytes
                0x00000000       0xd4 ..\obj\stm32f10x_flash.o
 .text.FLASH_ProgramHalfWord
                0x00000000       0x5c ..\obj\stm32f10x_flash.o
 .text.FLASH_ProgramOptionByteData
                0x00000000       0x78 ..\obj\stm32f10x_flash.o
 .text.FLASH_EnableWriteProtection
                0x00000000      0x118 ..\obj\stm32f10x_flash.o
 .text.FLASH_ReadOutProtection
                0x00000000       0xd4 ..\obj\stm32f10x_flash.o
 .text.FLASH_UserOptionByteConfig
                0x00000000       0x94 ..\obj\stm32f10x_flash.o
 .text.FLASH_GetUserOptionByte
                0x00000000       0x18 ..\obj\stm32f10x_flash.o
 .text.FLASH_GetWriteProtectionOptionByte
                0x00000000       0x14 ..\obj\stm32f10x_flash.o
 .text.FLASH_GetReadOutProtectionStatus
                0x00000000       0x30 ..\obj\stm32f10x_flash.o
 .text.FLASH_GetPrefetchBufferStatus
                0x00000000       0x30 ..\obj\stm32f10x_flash.o
 .text.FLASH_ITConfig
                0x00000000       0x3c ..\obj\stm32f10x_flash.o
 .text.FLASH_GetFlagStatus
                0x00000000       0x50 ..\obj\stm32f10x_flash.o
 .text.FLASH_ClearFlag
                0x00000000       0x1c ..\obj\stm32f10x_flash.o
 .text.FLASH_GetStatus
                0x00000000       0x54 ..\obj\stm32f10x_flash.o
 .text.FLASH_WaitForLastBank1Operation
                0x00000000       0x44 ..\obj\stm32f10x_flash.o
 .text          0x00000000        0x0 ..\obj\misc.o
 .data          0x00000000        0x0 ..\obj\misc.o
 .bss           0x00000000        0x0 ..\obj\misc.o
 .text.NVIC_PriorityGroupConfig
                0x00000000       0x24 ..\obj\misc.o
 .text.NVIC_SetVectorTable
                0x00000000       0x2c ..\obj\misc.o
 .text.NVIC_SystemLPConfig
                0x00000000       0x40 ..\obj\misc.o
 .text.SysTick_CLKSourceConfig
                0x00000000       0x38 ..\obj\misc.o
 .text          0x00000000        0x0 ..\obj\stm32f10x_spi.o
 .data          0x00000000        0x0 ..\obj\stm32f10x_spi.o
 .bss           0x00000000        0x0 ..\obj\stm32f10x_spi.o
 .text.SPI_I2S_DeInit
                0x00000000       0x74 ..\obj\stm32f10x_spi.o
 .text.SPI_Init
                0x00000000       0x86 ..\obj\stm32f10x_spi.o
 .text.I2S_Init
                0x00000000      0x168 ..\obj\stm32f10x_spi.o
 .text.SPI_StructInit
                0x00000000       0x48 ..\obj\stm32f10x_spi.o
 .text.I2S_StructInit
                0x00000000       0x36 ..\obj\stm32f10x_spi.o
 .text.SPI_Cmd  0x00000000       0x3e ..\obj\stm32f10x_spi.o
 .text.I2S_Cmd  0x00000000       0x3e ..\obj\stm32f10x_spi.o
 .text.SPI_I2S_ITConfig
                0x00000000       0x60 ..\obj\stm32f10x_spi.o
 .text.SPI_I2S_DMACmd
                0x00000000       0x46 ..\obj\stm32f10x_spi.o
 .text.SPI_I2S_SendData
                0x00000000       0x1c ..\obj\stm32f10x_spi.o
 .text.SPI_I2S_ReceiveData
                0x00000000       0x18 ..\obj\stm32f10x_spi.o
 .text.SPI_NSSInternalSoftwareConfig
                0x00000000       0x42 ..\obj\stm32f10x_spi.o
 .text.SPI_SSOutputCmd
                0x00000000       0x3e ..\obj\stm32f10x_spi.o
 .text.SPI_DataSizeConfig
                0x00000000       0x36 ..\obj\stm32f10x_spi.o
 .text.SPI_TransmitCRC
                0x00000000       0x22 ..\obj\stm32f10x_spi.o
 .text.SPI_CalculateCRC
                0x00000000       0x3e ..\obj\stm32f10x_spi.o
 .text.SPI_GetCRC
                0x00000000       0x30 ..\obj\stm32f10x_spi.o
 .text.SPI_GetCRCPolynomial
                0x00000000       0x18 ..\obj\stm32f10x_spi.o
 .text.SPI_BiDirectionalLineConfig
                0x00000000       0x40 ..\obj\stm32f10x_spi.o
 .text.SPI_I2S_GetFlagStatus
                0x00000000       0x36 ..\obj\stm32f10x_spi.o
 .text.SPI_I2S_ClearFlag
                0x00000000       0x20 ..\obj\stm32f10x_spi.o
 .text.SPI_I2S_GetITStatus
                0x00000000       0x74 ..\obj\stm32f10x_spi.o
 .text.SPI_I2S_ClearITPendingBit
                0x00000000       0x32 ..\obj\stm32f10x_spi.o
 .debug_info    0x00000000      0x902 ..\obj\stm32f10x_spi.o
 .debug_abbrev  0x00000000      0x1a9 ..\obj\stm32f10x_spi.o
 .debug_aranges
                0x00000000       0xd0 ..\obj\stm32f10x_spi.o
 .debug_ranges  0x00000000       0xc0 ..\obj\stm32f10x_spi.o
 .debug_line    0x00000000      0x407 ..\obj\stm32f10x_spi.o
 .debug_str     0x00000000      0x602 ..\obj\stm32f10x_spi.o
 .comment       0x00000000       0x80 ..\obj\stm32f10x_spi.o
 .debug_frame   0x00000000      0x3a0 ..\obj\stm32f10x_spi.o
 .ARM.attributes
                0x00000000       0x33 ..\obj\stm32f10x_spi.o
 .text          0x00000000        0x0 ..\obj\stm32f10x_i2c.o
 .data          0x00000000        0x0 ..\obj\stm32f10x_i2c.o
 .bss           0x00000000        0x0 ..\obj\stm32f10x_i2c.o
 .text.I2C_DeInit
                0x00000000       0x48 ..\obj\stm32f10x_i2c.o
 .text.I2C_Init
                0x00000000      0x184 ..\obj\stm32f10x_i2c.o
 .text.I2C_StructInit
                0x00000000       0x3c ..\obj\stm32f10x_i2c.o
 .text.I2C_Cmd  0x00000000       0x3e ..\obj\stm32f10x_i2c.o
 .text.I2C_DMACmd
                0x00000000       0x3e ..\obj\stm32f10x_i2c.o
 .text.I2C_DMALastTransferCmd
                0x00000000       0x3e ..\obj\stm32f10x_i2c.o
 .text.I2C_GenerateSTART
                0x00000000       0x3e ..\obj\stm32f10x_i2c.o
 .text.I2C_GenerateSTOP
                0x00000000       0x3e ..\obj\stm32f10x_i2c.o
 .text.I2C_AcknowledgeConfig
                0x00000000       0x3e ..\obj\stm32f10x_i2c.o
 .text.I2C_OwnAddress2Config
                0x00000000       0x42 ..\obj\stm32f10x_i2c.o
 .text.I2C_DualAddressCmd
                0x00000000       0x3e ..\obj\stm32f10x_i2c.o
 .text.I2C_GeneralCallCmd
                0x00000000       0x3e ..\obj\stm32f10x_i2c.o
 .text.I2C_ITConfig
                0x00000000       0x46 ..\obj\stm32f10x_i2c.o
 .text.I2C_SendData
                0x00000000       0x1e ..\obj\stm32f10x_i2c.o
 .text.I2C_ReceiveData
                0x00000000       0x1a ..\obj\stm32f10x_i2c.o
 .text.I2C_Send7bitAddress
                0x00000000       0x3a ..\obj\stm32f10x_i2c.o
 .text.I2C_ReadRegister
                0x00000000       0x2c ..\obj\stm32f10x_i2c.o
 .text.I2C_SoftwareResetCmd
                0x00000000       0x42 ..\obj\stm32f10x_i2c.o
 .text.I2C_NACKPositionConfig
                0x00000000       0x40 ..\obj\stm32f10x_i2c.o
 .text.I2C_SMBusAlertConfig
                0x00000000       0x40 ..\obj\stm32f10x_i2c.o
 .text.I2C_TransmitPEC
                0x00000000       0x3e ..\obj\stm32f10x_i2c.o
 .text.I2C_PECPositionConfig
                0x00000000       0x40 ..\obj\stm32f10x_i2c.o
 .text.I2C_CalculatePEC
                0x00000000       0x3e ..\obj\stm32f10x_i2c.o
 .text.I2C_GetPEC
                0x00000000       0x1e ..\obj\stm32f10x_i2c.o
 .text.I2C_ARPCmd
                0x00000000       0x3e ..\obj\stm32f10x_i2c.o
 .text.I2C_StretchClockCmd
                0x00000000       0x3e ..\obj\stm32f10x_i2c.o
 .text.I2C_FastModeDutyCycleConfig
                0x00000000       0x40 ..\obj\stm32f10x_i2c.o
 .text.I2C_CheckEvent
                0x00000000       0x5e ..\obj\stm32f10x_i2c.o
 .text.I2C_GetLastEvent
                0x00000000       0x42 ..\obj\stm32f10x_i2c.o
 .text.I2C_GetFlagStatus
                0x00000000       0x64 ..\obj\stm32f10x_i2c.o
 .text.I2C_ClearFlag
                0x00000000       0x2c ..\obj\stm32f10x_i2c.o
 .text.I2C_GetITStatus
                0x00000000       0x58 ..\obj\stm32f10x_i2c.o
 .text.I2C_ClearITPendingBit
                0x00000000       0x2c ..\obj\stm32f10x_i2c.o
 .debug_info    0x00000000      0xb13 ..\obj\stm32f10x_i2c.o
 .debug_abbrev  0x00000000      0x18f ..\obj\stm32f10x_i2c.o
 .debug_aranges
                0x00000000      0x120 ..\obj\stm32f10x_i2c.o
 .debug_ranges  0x00000000      0x110 ..\obj\stm32f10x_i2c.o
 .debug_line    0x00000000      0x4bf ..\obj\stm32f10x_i2c.o
 .debug_str     0x00000000      0x66b ..\obj\stm32f10x_i2c.o
 .comment       0x00000000       0x80 ..\obj\stm32f10x_i2c.o
 .debug_frame   0x00000000      0x530 ..\obj\stm32f10x_i2c.o
 .ARM.attributes
                0x00000000       0x33 ..\obj\stm32f10x_i2c.o

Memory Configuration

Name             Origin             Length             Attributes
rom              0x08000000         0x00020000         xr
ram              0x20000000         0x00002000         xrw
*default*        0x00000000         0xffffffff

Linker script and memory map

                0x20002000                _eram = 0x20002000

.text           0x08000000     0x20d8
 *(.isr_vector)
 .isr_vector    0x08000000      0x124 ..\obj\startup_stm32f10x_md_vl.o
                0x08000000                g_pfnVectors
 *(.text*)
 .text.Default_Reset_Handler
                0x08000124       0x60 ..\obj\startup_stm32f10x_md_vl.o
                0x08000124                Default_Reset_Handler
                0x08000124                Reset_Handler
 .text.Default_Handler
                0x08000184        0x6 ..\obj\startup_stm32f10x_md_vl.o
                0x08000184                EXTI2_IRQHandler
                0x08000184                DebugMon_Handler
                0x08000184                TIM1_CC_IRQHandler
                0x08000184                HardFault_Handler
                0x08000184                PVD_IRQHandler
                0x08000184                PendSV_Handler
                0x08000184                NMI_Handler
                0x08000184                EXTI3_IRQHandler
                0x08000184                EXTI0_IRQHandler
                0x08000184                I2C2_EV_IRQHandler
                0x08000184                TIM1_UP_TIM16_IRQHandler
                0x08000184                UsageFault_Handler
                0x08000184                SPI1_IRQHandler
                0x08000184                TAMPER_IRQHandler
                0x08000184                TIM6_DAC_IRQHandler
                0x08000184                DMA1_Channel4_IRQHandler
                0x08000184                ADC1_IRQHandler
                0x08000184                USART3_IRQHandler
                0x08000184                RTC_IRQHandler
                0x08000184                DMA1_Channel7_IRQHandler
                0x08000184                TIM4_IRQHandler
                0x08000184                I2C1_EV_IRQHandler
                0x08000184                DMA1_Channel6_IRQHandler
                0x08000184                TIM3_IRQHandler
                0x08000184                RCC_IRQHandler
                0x08000184                DMA1_Channel1_IRQHandler
                0x08000184                CEC_IRQHandler
                0x08000184                EXTI15_10_IRQHandler
                0x08000184                TIM7_IRQHandler
                0x08000184                EXTI9_5_IRQHandler
                0x08000184                SPI2_IRQHandler
                0x08000184                MemManage_Handler
                0x08000184                SVC_Handler
                0x08000184                DMA1_Channel5_IRQHandler
                0x08000184                EXTI4_IRQHandler
                0x08000184                TIM1_TRG_COM_TIM17_IRQHandler
                0x08000184                DMA1_Channel3_IRQHandler
                0x08000184                WWDG_IRQHandler
                0x08000184                TIM2_IRQHandler
                0x08000184                EXTI1_IRQHandler
                0x08000184                RTCAlarm_IRQHandler
                0x08000184                USART2_IRQHandler
                0x08000184                I2C2_ER_IRQHandler
                0x08000184                DMA1_Channel2_IRQHandler
                0x08000184                FLASH_IRQHandler
                0x08000184                BusFault_Handler
                0x08000184                I2C1_ER_IRQHandler
                0x08000184                TIM1_BRK_TIM15_IRQHandler
 .text.FLASH_Init
                0x0800018a       0x14 ..\obj\flash.o
                0x0800018a                FLASH_Init
 *fill*         0x0800019e        0x2 
 .text.FLASH_ReadSettings
                0x080001a0       0x48 ..\obj\flash.o
                0x080001a0                FLASH_ReadSettings
 .text.FLASH_WriteSettings
                0x080001e8       0x58 ..\obj\flash.o
                0x080001e8                FLASH_WriteSettings
 .text.write_FLASH
                0x08000240       0x58 ..\obj\flash.o
                0x08000240                write_FLASH
 .text.read_FLASH
                0x08000298       0x54 ..\obj\flash.o
                0x08000298                read_FLASH
 .text.SystemInit
                0x080002ec       0x70 ..\obj\system_stm32f10x.o
                0x080002ec                SystemInit
 .text.SetSysClock
                0x0800035c        0xc ..\obj\system_stm32f10x.o
 .text.SetSysClockTo24
                0x08000368       0xd4 ..\obj\system_stm32f10x.o
 .text.GPIO_Init
                0x0800043c      0x178 ..\obj\stm32f10x_gpio.o
                0x0800043c                GPIO_Init
 .text.GPIO_ReadInputData
                0x080005b4       0x18 ..\obj\stm32f10x_gpio.o
                0x080005b4                GPIO_ReadInputData
 .text.GPIO_SetBits
                0x080005cc       0x1c ..\obj\stm32f10x_gpio.o
                0x080005cc                GPIO_SetBits
 .text.GPIO_ResetBits
                0x080005e8       0x1c ..\obj\stm32f10x_gpio.o
                0x080005e8                GPIO_ResetBits
 .text.NVIC_EnableIRQ
                0x08000604       0x30 ..\obj\main.o
 .text.NVIC_SetPriority
                0x08000634       0x54 ..\obj\main.o
 .text.SysTick_Config
                0x08000688       0x44 ..\obj\main.o
 .text.blink_ON
                0x080006cc       0x14 ..\obj\main.o
                0x080006cc                blink_ON
 .text.blink_OFF
                0x080006e0       0x14 ..\obj\main.o
                0x080006e0                blink_OFF
 .text.pump_ON  0x080006f4       0x14 ..\obj\main.o
                0x080006f4                pump_ON
 .text.pump_OFF
                0x08000708       0x14 ..\obj\main.o
                0x08000708                pump_OFF
 .text.check_RAIN
                0x0800071c       0x1c ..\obj\main.o
                0x0800071c                check_RAIN
 .text.check_LEVEL
                0x08000738       0x1c ..\obj\main.o
                0x08000738                check_LEVEL
 .text.get_address
                0x08000754       0x60 ..\obj\main.o
                0x08000754                get_address
 .text.crc16    0x080007b4       0x7a ..\obj\main.o
                0x080007b4                crc16
 *fill*         0x0800082e        0x2 
 .text.Delay_ms
                0x08000830       0x40 ..\obj\main.o
                0x08000830                Delay_ms
 .text.read_RS485
                0x08000870       0x1c ..\obj\main.o
                0x08000870                read_RS485
 .text.write_RS485
                0x0800088c       0x14 ..\obj\main.o
                0x0800088c                write_RS485
 .text.USART1_IRQHandler
                0x080008a0       0xa0 ..\obj\main.o
                0x080008a0                USART1_IRQHandler
 .text.work     0x08000940      0x140 ..\obj\main.o
                0x08000940                work
 .text.command  0x08000a80       0xc8 ..\obj\main.o
                0x08000a80                command
 .text.SysTick_Handler
                0x08000b48       0x64 ..\obj\main.o
                0x08000b48                SysTick_Handler
 .text.f_read   0x08000bac       0xdc ..\obj\main.o
                0x08000bac                f_read
 .text.f_write  0x08000c88      0x10c ..\obj\main.o
                0x08000c88                f_write
 .text.f_test   0x08000d94       0xb4 ..\obj\main.o
                0x08000d94                f_test
 .text.f_reset  0x08000e48       0xe0 ..\obj\main.o
                0x08000e48                f_reset
 .text.reset    0x08000f28       0x40 ..\obj\main.o
                0x08000f28                reset
 .text.convert_ascii_to_value
                0x08000f68      0x31c ..\obj\main.o
                0x08000f68                convert_ascii_to_value
 .text.convert_data_to_ascii
                0x08001284      0x1c4 ..\obj\main.o
                0x08001284                convert_data_to_ascii
 .text.GPIO_Configuration
                0x08001448       0xc4 ..\obj\main.o
                0x08001448                GPIO_Configuration
 .text.USART_Configuration
                0x0800150c       0xa4 ..\obj\main.o
                0x0800150c                USART_Configuration
 .text.send_byte
                0x080015b0       0x34 ..\obj\main.o
                0x080015b0                send_byte
 .text.send_data
                0x080015e4       0x70 ..\obj\main.o
                0x080015e4                send_data
 .text.camera_move_position
                0x08001654       0xa4 ..\obj\main.o
                0x08001654                camera_move_position
 .text.camera_wiper
                0x080016f8       0xb0 ..\obj\main.o
                0x080016f8                camera_wiper
 .text.camera_Run_Tur_1
                0x080017a8       0xa4 ..\obj\main.o
                0x080017a8                camera_Run_Tur_1
 .text.main     0x0800184c       0x34 ..\obj\main.o
                0x0800184c                main
 .text.RCC_GetClocksFreq
                0x08001880      0x15c ..\obj\stm32f10x_rcc.o
                0x08001880                RCC_GetClocksFreq
 .text.RCC_APB2PeriphClockCmd
                0x080019dc       0x3c ..\obj\stm32f10x_rcc.o
                0x080019dc                RCC_APB2PeriphClockCmd
 .text.USART_Init
                0x08001a18      0x174 ..\obj\stm32f10x_usart.o
                0x08001a18                USART_Init
 .text.USART_Cmd
                0x08001b8c       0x3e ..\obj\stm32f10x_usart.o
                0x08001b8c                USART_Cmd
 .text.USART_ITConfig
                0x08001bca       0x8e ..\obj\stm32f10x_usart.o
                0x08001bca                USART_ITConfig
 .text.USART_SendData
                0x08001c58       0x22 ..\obj\stm32f10x_usart.o
                0x08001c58                USART_SendData
 .text.USART_ReceiveData
                0x08001c7a       0x1e ..\obj\stm32f10x_usart.o
                0x08001c7a                USART_ReceiveData
 .text.USART_GetFlagStatus
                0x08001c98       0x36 ..\obj\stm32f10x_usart.o
                0x08001c98                USART_GetFlagStatus
 .text.USART_ClearFlag
                0x08001cce       0x20 ..\obj\stm32f10x_usart.o
                0x08001cce                USART_ClearFlag
 .text.USART_GetITStatus
                0x08001cee       0xb4 ..\obj\stm32f10x_usart.o
                0x08001cee                USART_GetITStatus
 .text.USART_ClearITPendingBit
                0x08001da2       0x38 ..\obj\stm32f10x_usart.o
                0x08001da2                USART_ClearITPendingBit
 *fill*         0x08001dda        0x2 
 .text.FLASH_SetLatency
                0x08001ddc       0x38 ..\obj\stm32f10x_flash.o
                0x08001ddc                FLASH_SetLatency
 .text.FLASH_PrefetchBufferCmd
                0x08001e14       0x30 ..\obj\stm32f10x_flash.o
                0x08001e14                FLASH_PrefetchBufferCmd
 .text.FLASH_Unlock
                0x08001e44       0x24 ..\obj\stm32f10x_flash.o
                0x08001e44                FLASH_Unlock
 .text.FLASH_Lock
                0x08001e68       0x1c ..\obj\stm32f10x_flash.o
                0x08001e68                FLASH_Lock
 .text.FLASH_ErasePage
                0x08001e84       0x64 ..\obj\stm32f10x_flash.o
                0x08001e84                FLASH_ErasePage
 .text.FLASH_ProgramWord
                0x08001ee8       0x94 ..\obj\stm32f10x_flash.o
                0x08001ee8                FLASH_ProgramWord
 .text.FLASH_GetBank1Status
                0x08001f7c       0x54 ..\obj\stm32f10x_flash.o
                0x08001f7c                FLASH_GetBank1Status
 .text.FLASH_WaitForLastOperation
                0x08001fd0       0x44 ..\obj\stm32f10x_flash.o
                0x08001fd0                FLASH_WaitForLastOperation
 .text.NVIC_Init
                0x08002014       0xc4 ..\obj\misc.o
                0x08002014                NVIC_Init
 *(.init)
 *(.fini)
 *crtbegin.o(.ctors)
 *crtbegin?.o(.ctors)
 *(EXCLUDE_FILE(*crtend.o *crtend?.o) .ctors)
 *(SORT(.ctors.*))
 *(.ctors)
 *crtbegin.o(.dtors)
 *crtbegin?.o(.dtors)
 *(EXCLUDE_FILE(*crtend.o *crtend?.o) .dtors)
 *(SORT(.dtors.*))
 *(.dtors)
 *(.rodata*)
 *(.eh_fram e*)

.glue_7         0x080020d8        0x0
 .glue_7        0x080020d8        0x0 linker stubs

.glue_7t        0x080020d8        0x0
 .glue_7t       0x080020d8        0x0 linker stubs

.vfp11_veneer   0x080020d8        0x0
 .vfp11_veneer  0x080020d8        0x0 linker stubs

.v4_bx          0x080020d8        0x0
 .v4_bx         0x080020d8        0x0 linker stubs

.iplt           0x080020d8        0x0
 .iplt          0x080020d8        0x0 ..\obj\stm32f10x_tim.o

.rel.dyn        0x080020d8        0x0
 .rel.iplt      0x080020d8        0x0 ..\obj\stm32f10x_tim.o

.ARM.extab
 *(.ARM.extab* .gnu.linkonce.armextab.*)
                0x080020d8                __exidx_start = .

.ARM.exidx
 *(.ARM.exidx* .gnu.linkonce.armexidx.*)
                0x080020d8                __exidx_end = .
                0x080020d8                __etext = .
                0x080020d8                _sidata = __etext

.data           0x20000000       0x3c load address 0x080020d8
                0x20000000                __data_start__ = .
                0x20000000                _sdata = __data_start__
 *(vtable)
 *(.data*)
 .data          0x20000000       0x14 ..\obj\system_stm32f10x.o
                0x20000000                SystemCoreClock
                0x20000004                AHBPrescTable
 .data          0x20000014       0x14 ..\obj\main.o
                0x20000014                Pelco
 .data          0x20000028       0x14 ..\obj\stm32f10x_rcc.o
                0x2000003c                . = ALIGN (0x4)
                [!provide]                PROVIDE (__preinit_array_start, .)
 *(.preinit_array)
                [!provide]                PROVIDE (__preinit_array_end, .)
                0x2000003c                . = ALIGN (0x4)
                [!provide]                PROVIDE (__init_array_start, .)
 *(SORT(.init_array.*))
 *(.init_array)
                [!provide]                PROVIDE (__init_array_end, .)
                0x2000003c                . = ALIGN (0x4)
                [!provide]                PROVIDE (__fini_array_start, .)
 *(SORT(.fini_array.*))
 *(.fini_array)
                [!provide]                PROVIDE (__fini_array_end, .)
 *(.jcr*)
                0x2000003c                . = ALIGN (0x4)
                0x2000003c                __data_end__ = .
                0x2000003c                _edata = __data_end__

.igot.plt       0x2000003c        0x0 load address 0x08002114
 .igot.plt      0x2000003c        0x0 ..\obj\stm32f10x_tim.o

.bss            0x2000003c      0x10c load address 0x08002114
                0x2000003c                . = ALIGN (0x4)
                0x2000003c                __bss_start__ = .
                0x2000003c                _sbss = __bss_start__
 *(.bss*)
 .bss           0x2000003c       0x29 ..\obj\main.o
                0x2000003c                index_buf
                0x20000040                addr_cam_32
                0x20000044                time_interval_16
                0x20000048                time_washout_32
                0x2000004c                time_pause_washout_32
                0x20000050                preset_washout_32
                0x20000054                cnt_second
                0x20000058                state
                0x2000005c                sys_tick_cnt
                0x20000060                cnt_flash
                0x20000064                flag
 *(COMMON)
 *fill*         0x20000065        0x3 
 COMMON         0x20000068       0x18 ..\obj\flash.o
                0x20000068                settings
 COMMON         0x20000080       0xc8 ..\obj\main.o
                0x20000080                dirty_buf
                0x200000e4                buf
                0x20000148                . = ALIGN (0x4)
                0x20000148                __bss_end__ = .
                0x20000148                _ebss = __bss_end__

.heap           0x20000148        0x0
                0x20000148                __end__ = .
                0x20000148                _end = __end__
                0x20000148                end = __end__
 *(.heap*)
                0x20000148                __HeapLimit = .

.co_stack       0x20000148      0x400 load address 0x08002220
                0x20000148                . = ALIGN (0x8)
 *(.co_stack .co_stack.*)
 .co_stack      0x20000148      0x400 ..\obj\startup_stm32f10x_md_vl.o
                0x20000148                pulStack
                0x20002000                __StackTop = (ORIGIN (ram) + LENGTH (ram))
                0x20001c00                __StackLimit = (__StackTop - SIZEOF (.co_stack))
                [!provide]                PROVIDE (__stack, __StackTop)
                0x00000001                ASSERT ((__StackLimit >= __HeapLimit), region ram  overflowed with stack)
LOAD ..\obj\stm32f10x_tim.o
LOAD ..\obj\startup_stm32f10x_md_vl.o
LOAD ..\obj\flash.o
LOAD ..\obj\system_stm32f10x.o
LOAD ..\obj\stm32f10x_gpio.o
LOAD ..\obj\main.o
LOAD ..\obj\stm32f10x_rcc.o
LOAD ..\obj\stm32f10x_exti.o
LOAD ..\obj\stm32f10x_usart.o
LOAD ..\obj\stm32f10x_flash.o
LOAD ..\obj\misc.o
LOAD ..\obj\stm32f10x_spi.o
LOAD ..\obj\stm32f10x_i2c.o
START GROUP
LOAD c:/program files (x86)/gnu tools arm embedded/6 2017-q2-update/bin/../lib/gcc/arm-none-eabi/6.3.1/thumb/v7-m\libgcc.a
LOAD c:/program files (x86)/gnu tools arm embedded/6 2017-q2-update/bin/../lib/gcc/arm-none-eabi/6.3.1/../../../../arm-none-eabi/lib/thumb/v7-m\libg.a
LOAD c:/program files (x86)/gnu tools arm embedded/6 2017-q2-update/bin/../lib/gcc/arm-none-eabi/6.3.1/../../../../arm-none-eabi/lib/thumb/v7-m\libc.a
END GROUP
OUTPUT(STM32F100RBT6B.elf elf32-littlearm)

.debug_info     0x00000000     0x4d0a
 .debug_info    0x00000000      0x10b ..\obj\startup_stm32f10x_md_vl.o
 .debug_info    0x0000010b      0x25f ..\obj\flash.o
 .debug_info    0x0000036a      0x444 ..\obj\system_stm32f10x.o
 .debug_info    0x000007ae      0x6fd ..\obj\stm32f10x_gpio.o
 .debug_info    0x00000eab     0x1e40 ..\obj\main.o
 .debug_info    0x00002ceb      0x91b ..\obj\stm32f10x_rcc.o
 .debug_info    0x00003606      0x9f7 ..\obj\stm32f10x_usart.o
 .debug_info    0x00003ffd      0x7c4 ..\obj\stm32f10x_flash.o
 .debug_info    0x000047c1      0x549 ..\obj\misc.o

.debug_abbrev   0x00000000     0x102f
 .debug_abbrev  0x00000000       0xb6 ..\obj\startup_stm32f10x_md_vl.o
 .debug_abbrev  0x000000b6      0x11f ..\obj\flash.o
 .debug_abbrev  0x000001d5      0x16c ..\obj\system_stm32f10x.o
 .debug_abbrev  0x00000341      0x1db ..\obj\stm32f10x_gpio.o
 .debug_abbrev  0x0000051c      0x4ab ..\obj\main.o
 .debug_abbrev  0x000009c7      0x1cd ..\obj\stm32f10x_rcc.o
 .debug_abbrev  0x00000b94      0x18d ..\obj\stm32f10x_usart.o
 .debug_abbrev  0x00000d21      0x19e ..\obj\stm32f10x_flash.o
 .debug_abbrev  0x00000ebf      0x170 ..\obj\misc.o

.debug_aranges  0x00000000      0x608
 .debug_aranges
                0x00000000       0x28 ..\obj\startup_stm32f10x_md_vl.o
 .debug_aranges
                0x00000028       0x40 ..\obj\flash.o
 .debug_aranges
                0x00000068       0x38 ..\obj\system_stm32f10x.o
 .debug_aranges
                0x000000a0       0xa8 ..\obj\stm32f10x_gpio.o
 .debug_aranges
                0x00000148      0x168 ..\obj\main.o
 .debug_aranges
                0x000002b0      0x120 ..\obj\stm32f10x_rcc.o
 .debug_aranges
                0x000003d0      0x100 ..\obj\stm32f10x_usart.o
 .debug_aranges
                0x000004d0       0xf8 ..\obj\stm32f10x_flash.o
 .debug_aranges
                0x000005c8       0x40 ..\obj\misc.o

.debug_ranges   0x00000000      0x578
 .debug_ranges  0x00000000       0x18 ..\obj\startup_stm32f10x_md_vl.o
 .debug_ranges  0x00000018       0x30 ..\obj\flash.o
 .debug_ranges  0x00000048       0x28 ..\obj\system_stm32f10x.o
 .debug_ranges  0x00000070       0x98 ..\obj\stm32f10x_gpio.o
 .debug_ranges  0x00000108      0x158 ..\obj\main.o
 .debug_ranges  0x00000260      0x110 ..\obj\stm32f10x_rcc.o
 .debug_ranges  0x00000370       0xf0 ..\obj\stm32f10x_usart.o
 .debug_ranges  0x00000460       0xe8 ..\obj\stm32f10x_flash.o
 .debug_ranges  0x00000548       0x30 ..\obj\misc.o

.debug_line     0x00000000     0x20ef
 .debug_line    0x00000000       0x92 ..\obj\startup_stm32f10x_md_vl.o
 .debug_line    0x00000092      0x225 ..\obj\flash.o
 .debug_line    0x000002b7      0x219 ..\obj\system_stm32f10x.o
 .debug_line    0x000004d0      0x3aa ..\obj\stm32f10x_gpio.o
 .debug_line    0x0000087a      0x871 ..\obj\main.o
 .debug_line    0x000010eb      0x4b5 ..\obj\stm32f10x_rcc.o
 .debug_line    0x000015a0      0x48c ..\obj\stm32f10x_usart.o
 .debug_line    0x00001a2c      0x4a6 ..\obj\stm32f10x_flash.o
 .debug_line    0x00001ed2      0x21d ..\obj\misc.o

.debug_str      0x00000000     0x211a
 .debug_str     0x00000000      0x137 ..\obj\startup_stm32f10x_md_vl.o
                                0x149 (size before relaxing)
 .debug_str     0x00000137      0x183 ..\obj\flash.o
                                0x268 (size before relaxing)
 .debug_str     0x000002ba      0x153 ..\obj\system_stm32f10x.o
                                0x2cf (size before relaxing)
 .debug_str     0x0000040d      0x393 ..\obj\stm32f10x_gpio.o
                                0x51e (size before relaxing)
 .debug_str     0x000007a0      0xd38 ..\obj\main.o
                               0x113c (size before relaxing)
 .debug_str     0x000014d8      0x39c ..\obj\stm32f10x_rcc.o
                                0x672 (size before relaxing)
 .debug_str     0x00001874      0x396 ..\obj\stm32f10x_usart.o
                                0x695 (size before relaxing)
 .debug_str     0x00001c0a      0x418 ..\obj\stm32f10x_flash.o
                                0x5ed (size before relaxing)
 .debug_str     0x00002022       0xf8 ..\obj\misc.o
                                0x3c3 (size before relaxing)

.comment        0x00000000       0x7f
 .comment       0x00000000       0x7f ..\obj\startup_stm32f10x_md_vl.o
                                 0x80 (size before relaxing)
 .comment       0x0000007f       0x80 ..\obj\flash.o
 .comment       0x0000007f       0x80 ..\obj\system_stm32f10x.o
 .comment       0x0000007f       0x80 ..\obj\stm32f10x_gpio.o
 .comment       0x0000007f       0x80 ..\obj\main.o
 .comment       0x0000007f       0x80 ..\obj\stm32f10x_rcc.o
 .comment       0x0000007f       0x80 ..\obj\stm32f10x_usart.o
 .comment       0x0000007f       0x80 ..\obj\stm32f10x_flash.o
 .comment       0x0000007f       0x80 ..\obj\misc.o

.ARM.attributes
                0x00000000       0x33
 .ARM.attributes
                0x00000000       0x33 ..\obj\startup_stm32f10x_md_vl.o
 .ARM.attributes
                0x00000033       0x33 ..\obj\flash.o
 .ARM.attributes
                0x00000066       0x33 ..\obj\system_stm32f10x.o
 .ARM.attributes
                0x00000099       0x33 ..\obj\stm32f10x_gpio.o
 .ARM.attributes
                0x000000cc       0x33 ..\obj\main.o
 .ARM.attributes
                0x000000ff       0x33 ..\obj\stm32f10x_rcc.o
 .ARM.attributes
                0x00000132       0x33 ..\obj\stm32f10x_usart.o
 .ARM.attributes
                0x00000165       0x33 ..\obj\stm32f10x_flash.o
 .ARM.attributes
                0x00000198       0x33 ..\obj\misc.o

.debug_frame    0x00000000     0x1870
 .debug_frame   0x00000000       0x4c ..\obj\startup_stm32f10x_md_vl.o
 .debug_frame   0x0000004c       0xb0 ..\obj\flash.o
 .debug_frame   0x000000fc       0x98 ..\obj\system_stm32f10x.o
 .debug_frame   0x00000194      0x2d0 ..\obj\stm32f10x_gpio.o
 .debug_frame   0x00000464      0x578 ..\obj\main.o
 .debug_frame   0x000009dc      0x51c ..\obj\stm32f10x_rcc.o
 .debug_frame   0x00000ef8      0x490 ..\obj\stm32f10x_usart.o
 .debug_frame   0x00001388      0x410 ..\obj\stm32f10x_flash.o
 .debug_frame   0x00001798       0xd8 ..\obj\misc.o
